---
triple:          'x86_64-apple-darwin'
binary-path:     '/Users/jass/Extra/DSA/Step 3 - Arrays/Easy/arrayEasy'
relocations:
  - { offsetInCU: 0xD7, offset: 0xD7, size: 0x8, addend: 0x0, symName: __ZN9__gnu_cxx5__ops16__iter_less_iterEv, symObjAddr: 0x0, symBinAddr: 0x100002E32, symSize: 0x8 }
  - { offsetInCU: 0xDF, offset: 0xDF, size: 0x8, addend: 0x0, symName: __ZSt19piecewise_construct, symObjAddr: 0x4EB9, symBinAddr: 0x10000829C, symSize: 0x0 }
  - { offsetInCU: 0x196B, offset: 0x196B, size: 0x8, addend: 0x0, symName: __ZSt19piecewise_construct, symObjAddr: 0x4EB9, symBinAddr: 0x10000829C, symSize: 0x0 }
  - { offsetInCU: 0x206D8, offset: 0x206D8, size: 0x8, addend: 0x0, symName: __ZStL8__ioinit, symObjAddr: 0x9A7B8, symBinAddr: 0x100010122, symSize: 0x0 }
  - { offsetInCU: 0x26F26, offset: 0x26F26, size: 0x8, addend: 0x0, symName: __ZNSt8__detail30__integer_to_chars_is_unsignedIjEE, symObjAddr: 0x4EBA, symBinAddr: 0x10000829D, symSize: 0x0 }
  - { offsetInCU: 0x26F40, offset: 0x26F40, size: 0x8, addend: 0x0, symName: __ZNSt8__detail30__integer_to_chars_is_unsignedImEE, symObjAddr: 0x4EBB, symBinAddr: 0x10000829E, symSize: 0x0 }
  - { offsetInCU: 0x26F5A, offset: 0x26F5A, size: 0x8, addend: 0x0, symName: __ZNSt8__detail30__integer_to_chars_is_unsignedIyEE, symObjAddr: 0x4EBC, symBinAddr: 0x10000829F, symSize: 0x0 }
  - { offsetInCU: 0x27085, offset: 0x27085, size: 0x8, addend: 0x0, symName: __ZNSt8__detail30__integer_to_chars_is_unsignedIoEE, symObjAddr: 0x4EBD, symBinAddr: 0x1000082A0, symSize: 0x0 }
  - { offsetInCU: 0x270E4, offset: 0x270E4, size: 0x8, addend: 0x0, symName: __GLOBAL__sub_I_arrayEasy.cpp, symObjAddr: 0x4EAE, symBinAddr: 0x100007CE0, symSize: 0xB }
  - { offsetInCU: 0x270EC, offset: 0x270EC, size: 0x8, addend: 0x0, symName: __ZSt19piecewise_construct, symObjAddr: 0x4EB9, symBinAddr: 0x10000829C, symSize: 0x0 }
  - { offsetInCU: 0x2710B, offset: 0x2710B, size: 0x8, addend: 0x0, symName: __Z41__static_initialization_and_destruction_0v, symObjAddr: 0x4E75, symBinAddr: 0x100007CA7, symSize: 0x39 }
  - { offsetInCU: 0x27113, offset: 0x27113, size: 0x8, addend: 0x0, symName: __GLOBAL__sub_I_arrayEasy.cpp, symObjAddr: 0x4EAE, symBinAddr: 0x100007CE0, symSize: 0xB }
  - { offsetInCU: 0x270FD, offset: 0x270FD, size: 0x8, addend: 0x0, symName: __ZNSt10_Head_baseILm0ERKiLb0EE7_M_headERS2_, symObjAddr: 0x4E64, symBinAddr: 0x100007C96, symSize: 0x11 }
  - { offsetInCU: 0x27105, offset: 0x27105, size: 0x8, addend: 0x0, symName: __Z41__static_initialization_and_destruction_0v, symObjAddr: 0x4E75, symBinAddr: 0x100007CA7, symSize: 0x39 }
  - { offsetInCU: 0x2712E, offset: 0x2712E, size: 0x8, addend: 0x0, symName: __ZNSt11_Tuple_implILm0EJRKiEE7_M_headERS2_, symObjAddr: 0x4E4A, symBinAddr: 0x100007C7C, symSize: 0x1A }
  - { offsetInCU: 0x27136, offset: 0x27136, size: 0x8, addend: 0x0, symName: __ZNSt10_Head_baseILm0ERKiLb0EE7_M_headERS2_, symObjAddr: 0x4E64, symBinAddr: 0x100007C96, symSize: 0x11 }
  - { offsetInCU: 0x271DC, offset: 0x271DC, size: 0x8, addend: 0x0, symName: __ZSt12__get_helperILm0ERKiJEERT0_RSt11_Tuple_implIXT_EJS2_DpT1_EE, symObjAddr: 0x4E30, symBinAddr: 0x100007C62, symSize: 0x1A }
  - { offsetInCU: 0x271E4, offset: 0x271E4, size: 0x8, addend: 0x0, symName: __ZNSt11_Tuple_implILm0EJRKiEE7_M_headERS2_, symObjAddr: 0x4E4A, symBinAddr: 0x100007C7C, symSize: 0x1A }
  - { offsetInCU: 0x271DD, offset: 0x271DD, size: 0x8, addend: 0x0, symName: __ZNK9__gnu_cxx16__aligned_bufferISt4pairIKiiEE7_M_addrEv, symObjAddr: 0x4E22, symBinAddr: 0x100007C54, symSize: 0xE }
  - { offsetInCU: 0x271E5, offset: 0x271E5, size: 0x8, addend: 0x0, symName: __ZSt12__get_helperILm0ERKiJEERT0_RSt11_Tuple_implIXT_EJS2_DpT1_EE, symObjAddr: 0x4E30, symBinAddr: 0x100007C62, symSize: 0x1A }
  - { offsetInCU: 0x2720F, offset: 0x2720F, size: 0x8, addend: 0x0, symName: __ZNSt11__copy_moveILb0ELb0ESt26random_access_iterator_tagE12__assign_oneIiKiEEvPT_PT0_, symObjAddr: 0x4E06, symBinAddr: 0x100007C38, symSize: 0x1C }
  - { offsetInCU: 0x2726F, offset: 0x2726F, size: 0x8, addend: 0x0, symName: __ZNSt11__copy_moveILb1ELb0ESt26random_access_iterator_tagE12__assign_oneIiiEEvPT_PT0_, symObjAddr: 0x4DDF, symBinAddr: 0x100007C11, symSize: 0x27 }
  - { offsetInCU: 0x27277, offset: 0x27277, size: 0x8, addend: 0x0, symName: __ZNSt11__copy_moveILb0ELb0ESt26random_access_iterator_tagE12__assign_oneIiKiEEvPT_PT0_, symObjAddr: 0x4E06, symBinAddr: 0x100007C38, symSize: 0x1C }
  - { offsetInCU: 0x272CF, offset: 0x272CF, size: 0x8, addend: 0x0, symName: __ZNSt15__new_allocatorIPNSt8__detail15_Hash_node_baseEE8allocateEmPKv, symObjAddr: 0x4D78, symBinAddr: 0x100007BAA, symSize: 0x67 }
  - { offsetInCU: 0x272D7, offset: 0x272D7, size: 0x8, addend: 0x0, symName: __ZNSt11__copy_moveILb1ELb0ESt26random_access_iterator_tagE12__assign_oneIiiEEvPT_PT0_, symObjAddr: 0x4DDF, symBinAddr: 0x100007C11, symSize: 0x27 }
  - { offsetInCU: 0x273B9, offset: 0x273B9, size: 0x8, addend: 0x0, symName: __ZSt3getILm0EJRKiEERNSt13tuple_elementIXT_ESt5tupleIJDpT0_EEE4typeERS6_, symObjAddr: 0x4D5E, symBinAddr: 0x100007B90, symSize: 0x1A }
  - { offsetInCU: 0x273C1, offset: 0x273C1, size: 0x8, addend: 0x0, symName: __ZNSt15__new_allocatorIPNSt8__detail15_Hash_node_baseEE8allocateEmPKv, symObjAddr: 0x4D78, symBinAddr: 0x100007BAA, symSize: 0x67 }
  - { offsetInCU: 0x273B5, offset: 0x273B5, size: 0x8, addend: 0x0, symName: __ZNK9__gnu_cxx16__aligned_bufferISt4pairIKiiEE6_M_ptrEv, symObjAddr: 0x4D44, symBinAddr: 0x100007B76, symSize: 0x1A }
  - { offsetInCU: 0x273BD, offset: 0x273BD, size: 0x8, addend: 0x0, symName: __ZSt3getILm0EJRKiEERNSt13tuple_elementIXT_ESt5tupleIJDpT0_EEE4typeERS6_, symObjAddr: 0x4D5E, symBinAddr: 0x100007B90, symSize: 0x1A }
  - { offsetInCU: 0x273E4, offset: 0x273E4, size: 0x8, addend: 0x0, symName: __ZNSt11__copy_moveILb0ELb1ESt26random_access_iterator_tagE8__copy_mIKiiEEPT0_PT_S7_S5_, symObjAddr: 0x4CC0, symBinAddr: 0x100007AF2, symSize: 0x84 }
  - { offsetInCU: 0x273EC, offset: 0x273EC, size: 0x8, addend: 0x0, symName: __ZNK9__gnu_cxx16__aligned_bufferISt4pairIKiiEE6_M_ptrEv, symObjAddr: 0x4D44, symBinAddr: 0x100007B76, symSize: 0x1A }
  - { offsetInCU: 0x2746D, offset: 0x2746D, size: 0x8, addend: 0x0, symName: __ZNSt20__copy_move_backwardILb1ELb1ESt26random_access_iterator_tagE13__copy_move_bIiiEEPT0_PT_S6_S4_, symObjAddr: 0x4C25, symBinAddr: 0x100007A57, symSize: 0x9B }
  - { offsetInCU: 0x27475, offset: 0x27475, size: 0x8, addend: 0x0, symName: __ZNSt11__copy_moveILb0ELb1ESt26random_access_iterator_tagE8__copy_mIKiiEEPT0_PT_S7_S5_, symObjAddr: 0x4CC0, symBinAddr: 0x100007AF2, symSize: 0x84 }
  - { offsetInCU: 0x27509, offset: 0x27509, size: 0x8, addend: 0x0, symName: __ZNK9__gnu_cxx5__ops14_Iter_less_valclINS_17__normal_iteratorIPiSt6vectorIiSaIiEEEEiEEbT_RT0_, symObjAddr: 0x4BF6, symBinAddr: 0x100007A28, symSize: 0x2F }
  - { offsetInCU: 0x27511, offset: 0x27511, size: 0x8, addend: 0x0, symName: __ZNSt20__copy_move_backwardILb1ELb1ESt26random_access_iterator_tagE13__copy_move_bIiiEEPT0_PT_S6_S4_, symObjAddr: 0x4C25, symBinAddr: 0x100007A57, symSize: 0x9B }
  - { offsetInCU: 0x275E4, offset: 0x275E4, size: 0x8, addend: 0x0, symName: __ZSt12__to_addressIPNSt8__detail15_Hash_node_baseEEPT_S4_, symObjAddr: 0x4BE8, symBinAddr: 0x100007A1A, symSize: 0xE }
  - { offsetInCU: 0x275EC, offset: 0x275EC, size: 0x8, addend: 0x0, symName: __ZNK9__gnu_cxx5__ops14_Iter_less_valclINS_17__normal_iteratorIPiSt6vectorIiSaIiEEEEiEEbT_RT0_, symObjAddr: 0x4BF6, symBinAddr: 0x100007A28, symSize: 0x2F }
  - { offsetInCU: 0x276DC, offset: 0x276DC, size: 0x8, addend: 0x0, symName: __ZNSt4pairIKiiEC1IJRS0_EJLm0EEJEJEEERSt5tupleIJDpT_EERS4_IJDpT1_EESt12_Index_tupleIJXspT0_EEESD_IJXspT2_EEE, symObjAddr: 0x4BAA, symBinAddr: 0x1000079DC, symSize: 0x3E }
  - { offsetInCU: 0x276E4, offset: 0x276E4, size: 0x8, addend: 0x0, symName: __ZSt12__to_addressIPNSt8__detail15_Hash_node_baseEEPT_S4_, symObjAddr: 0x4BE8, symBinAddr: 0x100007A1A, symSize: 0xE }
  - { offsetInCU: 0x27772, offset: 0x27772, size: 0x8, addend: 0x0, symName: __ZSt7forwardIRKSt4pairIKiiEEOT_RNSt16remove_referenceIS5_E4typeE, symObjAddr: 0x4B9C, symBinAddr: 0x1000079CE, symSize: 0xE }
  - { offsetInCU: 0x2777A, offset: 0x2777A, size: 0x8, addend: 0x0, symName: __ZNSt4pairIKiiEC1IJRS0_EJLm0EEJEJEEERSt5tupleIJDpT_EERS4_IJDpT1_EESt12_Index_tupleIJXspT0_EEESD_IJXspT2_EEE, symObjAddr: 0x4BAA, symBinAddr: 0x1000079DC, symSize: 0x3E }
  - { offsetInCU: 0x27758, offset: 0x27758, size: 0x8, addend: 0x0, symName: __ZNKSt8__detail21_Hash_node_value_baseISt4pairIKiiEE9_M_valptrEv, symObjAddr: 0x4B82, symBinAddr: 0x1000079B4, symSize: 0x1A }
  - { offsetInCU: 0x27760, offset: 0x27760, size: 0x8, addend: 0x0, symName: __ZSt7forwardIRKSt4pairIKiiEEOT_RNSt16remove_referenceIS5_E4typeE, symObjAddr: 0x4B9C, symBinAddr: 0x1000079CE, symSize: 0xE }
  - { offsetInCU: 0x27787, offset: 0x27787, size: 0x8, addend: 0x0, symName: __ZNKSt8__detail21_Hashtable_ebo_helperILi0ESt8equal_toIiELb1EE7_M_cgetEv, symObjAddr: 0x4B74, symBinAddr: 0x1000079A6, symSize: 0xE }
  - { offsetInCU: 0x2778F, offset: 0x2778F, size: 0x8, addend: 0x0, symName: __ZNKSt8__detail21_Hash_node_value_baseISt4pairIKiiEE9_M_valptrEv, symObjAddr: 0x4B82, symBinAddr: 0x1000079B4, symSize: 0x1A }
  - { offsetInCU: 0x2784A, offset: 0x2784A, size: 0x8, addend: 0x0, symName: __ZSt11__addressofINSt8__detail10_Hash_nodeISt4pairIKiiELb0EEEEPT_RS6_, symObjAddr: 0x4B65, symBinAddr: 0x100007997, symSize: 0xF }
  - { offsetInCU: 0x2785A, offset: 0x2785A, size: 0x8, addend: 0x0, symName: __ZSt14__copy_move_a2ILb0EPKiPiET1_T0_S4_S3_, symObjAddr: 0x4B38, symBinAddr: 0x10000796A, symSize: 0x2D }
  - { offsetInCU: 0x27862, offset: 0x27862, size: 0x8, addend: 0x0, symName: __ZSt11__addressofINSt8__detail10_Hash_nodeISt4pairIKiiELb0EEEEPT_RS6_, symObjAddr: 0x4B65, symBinAddr: 0x100007997, symSize: 0xF }
  - { offsetInCU: 0x27890, offset: 0x27890, size: 0x8, addend: 0x0, symName: __ZNK9__gnu_cxx17__normal_iteratorIPKiSt6vectorIiSaIiEEE4baseEv, symObjAddr: 0x4B2A, symBinAddr: 0x10000795C, symSize: 0xE }
  - { offsetInCU: 0x27898, offset: 0x27898, size: 0x8, addend: 0x0, symName: __ZSt14__copy_move_a2ILb0EPKiPiET1_T0_S4_S3_, symObjAddr: 0x4B38, symBinAddr: 0x10000796A, symSize: 0x2D }
  - { offsetInCU: 0x27923, offset: 0x27923, size: 0x8, addend: 0x0, symName: __ZSt23__copy_move_backward_a2ILb1EPiS0_ET1_T0_S2_S1_, symObjAddr: 0x4AFD, symBinAddr: 0x10000792F, symSize: 0x2D }
  - { offsetInCU: 0x2792B, offset: 0x2792B, size: 0x8, addend: 0x0, symName: __ZNK9__gnu_cxx17__normal_iteratorIPKiSt6vectorIiSaIiEEE4baseEv, symObjAddr: 0x4B2A, symBinAddr: 0x10000795C, symSize: 0xE }
  - { offsetInCU: 0x27A37, offset: 0x27A37, size: 0x8, addend: 0x0, symName: __ZSt11__push_heapIN9__gnu_cxx17__normal_iteratorIPiSt6vectorIiSaIiEEEEliNS0_5__ops14_Iter_less_valEEvT_T0_SA_T1_RT2_, symObjAddr: 0x49CE, symBinAddr: 0x100007800, symSize: 0x12F }
  - { offsetInCU: 0x27A3F, offset: 0x27A3F, size: 0x8, addend: 0x0, symName: __ZSt23__copy_move_backward_a2ILb1EPiS0_ET1_T0_S2_S1_, symObjAddr: 0x4AFD, symBinAddr: 0x10000792F, symSize: 0x2D }
  - { offsetInCU: 0x27AA7, offset: 0x27AA7, size: 0x8, addend: 0x0, symName: __ZSt4moveIRN9__gnu_cxx5__ops15_Iter_less_iterEEONSt16remove_referenceIT_E4typeEOS5_, symObjAddr: 0x49C0, symBinAddr: 0x1000077F2, symSize: 0xE }
  - { offsetInCU: 0x27AAF, offset: 0x27AAF, size: 0x8, addend: 0x0, symName: __ZSt11__push_heapIN9__gnu_cxx17__normal_iteratorIPiSt6vectorIiSaIiEEEEliNS0_5__ops14_Iter_less_valEEvT_T0_SA_T1_RT2_, symObjAddr: 0x49CE, symBinAddr: 0x100007800, symSize: 0x12F }
  - { offsetInCU: 0x27A85, offset: 0x27A85, size: 0x8, addend: 0x0, symName: __ZNSt8__detail16_Hashtable_allocISaINS_10_Hash_nodeISt4pairIKiiELb0EEEEE19_M_allocate_bucketsEm, symObjAddr: 0x490A, symBinAddr: 0x10000773C, symSize: 0xB6 }
  - { offsetInCU: 0x27A8D, offset: 0x27A8D, size: 0x8, addend: 0x0, symName: __ZSt4moveIRN9__gnu_cxx5__ops15_Iter_less_iterEEONSt16remove_referenceIT_E4typeEOS5_, symObjAddr: 0x49C0, symBinAddr: 0x1000077F2, symSize: 0xE }
  - { offsetInCU: 0x27C8D, offset: 0x27C8D, size: 0x8, addend: 0x0, symName: __ZNSt4pairIKiiEC1IJRS0_EJEEESt21piecewise_construct_tSt5tupleIJDpT_EES5_IJDpT0_EE, symObjAddr: 0x48E0, symBinAddr: 0x100007712, symSize: 0x2A }
  - { offsetInCU: 0x27C95, offset: 0x27C95, size: 0x8, addend: 0x0, symName: __ZNSt8__detail16_Hashtable_allocISaINS_10_Hash_nodeISt4pairIKiiELb0EEEEE19_M_allocate_bucketsEm, symObjAddr: 0x490A, symBinAddr: 0x10000773C, symSize: 0xB6 }
  - { offsetInCU: 0x27CF7, offset: 0x27CF7, size: 0x8, addend: 0x0, symName: __ZNSt11_Tuple_implILm0EJRKiEEC2EOS2_, symObjAddr: 0x48C2, symBinAddr: 0x1000076F4, symSize: 0x1E }
  - { offsetInCU: 0x27D28, offset: 0x27D28, size: 0x8, addend: 0x0, symName: __ZNKSt8equal_toIiEclERKiS2_, symObjAddr: 0x489E, symBinAddr: 0x1000076D0, symSize: 0x24 }
  - { offsetInCU: 0x27D92, offset: 0x27D92, size: 0x8, addend: 0x0, symName: __ZNKSt8__detail10_Select1stclIRKSt4pairIKiiEEEONS0_10__1st_typeIT_E4typeEOS8_, symObjAddr: 0x4880, symBinAddr: 0x1000076B2, symSize: 0x1E }
  - { offsetInCU: 0x27D9A, offset: 0x27D9A, size: 0x8, addend: 0x0, symName: __ZNKSt8equal_toIiEclERKiS2_, symObjAddr: 0x489E, symBinAddr: 0x1000076D0, symSize: 0x24 }
  - { offsetInCU: 0x27DE1, offset: 0x27DE1, size: 0x8, addend: 0x0, symName: __ZNKSt8__detail21_Hash_node_value_baseISt4pairIKiiEE4_M_vEv, symObjAddr: 0x4866, symBinAddr: 0x100007698, symSize: 0x1A }
  - { offsetInCU: 0x27DE9, offset: 0x27DE9, size: 0x8, addend: 0x0, symName: __ZNKSt8__detail10_Select1stclIRKSt4pairIKiiEEEONS0_10__1st_typeIT_E4typeEOS8_, symObjAddr: 0x4880, symBinAddr: 0x1000076B2, symSize: 0x1E }
  - { offsetInCU: 0x27E10, offset: 0x27E10, size: 0x8, addend: 0x0, symName: __ZNKSt8__detail15_Hashtable_baseIiSt4pairIKiiENS_10_Select1stESt8equal_toIiESt4hashIiENS_18_Mod_range_hashingENS_20_Default_ranged_hashENS_17_Hashtable_traitsILb0ELb0ELb1EEEE5_M_eqEv, symObjAddr: 0x484C, symBinAddr: 0x10000767E, symSize: 0x1A }
  - { offsetInCU: 0x27E18, offset: 0x27E18, size: 0x8, addend: 0x0, symName: __ZNKSt8__detail21_Hash_node_value_baseISt4pairIKiiEE4_M_vEv, symObjAddr: 0x4866, symBinAddr: 0x100007698, symSize: 0x1A }
  - { offsetInCU: 0x27EAA, offset: 0x27EAA, size: 0x8, addend: 0x0, symName: __ZSt11__addressofIPNSt8__detail15_Hash_node_baseEEPT_RS3_, symObjAddr: 0x483E, symBinAddr: 0x100007670, symSize: 0xE }
  - { offsetInCU: 0x27EB2, offset: 0x27EB2, size: 0x8, addend: 0x0, symName: __ZNKSt8__detail15_Hashtable_baseIiSt4pairIKiiENS_10_Select1stESt8equal_toIiESt4hashIiENS_18_Mod_range_hashingENS_20_Default_ranged_hashENS_17_Hashtable_traitsILb0ELb0ELb1EEEE5_M_eqEv, symObjAddr: 0x484C, symBinAddr: 0x10000767E, symSize: 0x1A }
  - { offsetInCU: 0x27F19, offset: 0x27F19, size: 0x8, addend: 0x0, symName: __ZSt9addressofINSt8__detail10_Hash_nodeISt4pairIKiiELb0EEEEPT_RS6_, symObjAddr: 0x4824, symBinAddr: 0x100007656, symSize: 0x1A }
  - { offsetInCU: 0x27F21, offset: 0x27F21, size: 0x8, addend: 0x0, symName: __ZSt11__addressofIPNSt8__detail15_Hash_node_baseEEPT_RS3_, symObjAddr: 0x483E, symBinAddr: 0x100007670, symSize: 0xE }
  - { offsetInCU: 0x27F0E, offset: 0x27F0E, size: 0x8, addend: 0x0, symName: __ZSt12__niter_wrapIPiET_RKS1_S1_, symObjAddr: 0x4812, symBinAddr: 0x100007644, symSize: 0x12 }
  - { offsetInCU: 0x27F16, offset: 0x27F16, size: 0x8, addend: 0x0, symName: __ZSt9addressofINSt8__detail10_Hash_nodeISt4pairIKiiELb0EEEEPT_RS6_, symObjAddr: 0x4824, symBinAddr: 0x100007656, symSize: 0x1A }
  - { offsetInCU: 0x27F86, offset: 0x27F86, size: 0x8, addend: 0x0, symName: __ZSt14__copy_move_a1ILb0EPKiPiET1_T0_S4_S3_, symObjAddr: 0x47E5, symBinAddr: 0x100007617, symSize: 0x2D }
  - { offsetInCU: 0x27F8E, offset: 0x27F8E, size: 0x8, addend: 0x0, symName: __ZSt12__niter_wrapIPiET_RKS1_S1_, symObjAddr: 0x4812, symBinAddr: 0x100007644, symSize: 0x12 }
  - { offsetInCU: 0x2803F, offset: 0x2803F, size: 0x8, addend: 0x0, symName: __ZSt12__niter_baseIPKiSt6vectorIiSaIiEEET_N9__gnu_cxx17__normal_iteratorIS5_T0_EE, symObjAddr: 0x47C8, symBinAddr: 0x1000075FA, symSize: 0x1D }
  - { offsetInCU: 0x28047, offset: 0x28047, size: 0x8, addend: 0x0, symName: __ZSt14__copy_move_a1ILb0EPKiPiET1_T0_S4_S3_, symObjAddr: 0x47E5, symBinAddr: 0x100007617, symSize: 0x2D }
  - { offsetInCU: 0x280D1, offset: 0x280D1, size: 0x8, addend: 0x0, symName: __ZSt12__niter_wrapIN9__gnu_cxx17__normal_iteratorIPiSt6vectorIiSaIiEEEES2_ET_S7_T0_, symObjAddr: 0x478A, symBinAddr: 0x1000075BC, symSize: 0x3E }
  - { offsetInCU: 0x280D9, offset: 0x280D9, size: 0x8, addend: 0x0, symName: __ZSt12__niter_baseIPKiSt6vectorIiSaIiEEET_N9__gnu_cxx17__normal_iteratorIS5_T0_EE, symObjAddr: 0x47C8, symBinAddr: 0x1000075FA, symSize: 0x1D }
  - { offsetInCU: 0x280FF, offset: 0x280FF, size: 0x8, addend: 0x0, symName: __ZSt23__copy_move_backward_a1ILb1EPiS0_ET1_T0_S2_S1_, symObjAddr: 0x475D, symBinAddr: 0x10000758F, symSize: 0x2D }
  - { offsetInCU: 0x28107, offset: 0x28107, size: 0x8, addend: 0x0, symName: __ZSt12__niter_wrapIN9__gnu_cxx17__normal_iteratorIPiSt6vectorIiSaIiEEEES2_ET_S7_T0_, symObjAddr: 0x478A, symBinAddr: 0x1000075BC, symSize: 0x3E }
  - { offsetInCU: 0x281A6, offset: 0x281A6, size: 0x8, addend: 0x0, symName: __ZSt12__niter_baseIPiSt6vectorIiSaIiEEET_N9__gnu_cxx17__normal_iteratorIS4_T0_EE, symObjAddr: 0x4740, symBinAddr: 0x100007572, symSize: 0x1D }
  - { offsetInCU: 0x281AE, offset: 0x281AE, size: 0x8, addend: 0x0, symName: __ZSt23__copy_move_backward_a1ILb1EPiS0_ET1_T0_S2_S1_, symObjAddr: 0x475D, symBinAddr: 0x10000758F, symSize: 0x2D }
  - { offsetInCU: 0x28271, offset: 0x28271, size: 0x8, addend: 0x0, symName: __ZSt13__adjust_heapIN9__gnu_cxx17__normal_iteratorIPiSt6vectorIiSaIiEEEEliNS0_5__ops15_Iter_less_iterEEvT_T0_SA_T1_T2_, symObjAddr: 0x455C, symBinAddr: 0x10000738E, symSize: 0x1E4 }
  - { offsetInCU: 0x28279, offset: 0x28279, size: 0x8, addend: 0x0, symName: __ZSt12__niter_baseIPiSt6vectorIiSaIiEEET_N9__gnu_cxx17__normal_iteratorIS4_T0_EE, symObjAddr: 0x4740, symBinAddr: 0x100007572, symSize: 0x1D }
  - { offsetInCU: 0x28278, offset: 0x28278, size: 0x8, addend: 0x0, symName: __ZNSt10_HashtableIiSt4pairIKiiESaIS2_ENSt8__detail10_Select1stESt8equal_toIiESt4hashIiENS4_18_Mod_range_hashingENS4_20_Default_ranged_hashENS4_20_Prime_rehash_policyENS4_17_Hashtable_traitsILb0ELb0ELb1EEEE19_M_allocate_bucketsEm, symObjAddr: 0x4510, symBinAddr: 0x100007342, symSize: 0x4C }
  - { offsetInCU: 0x28280, offset: 0x28280, size: 0x8, addend: 0x0, symName: __ZSt13__adjust_heapIN9__gnu_cxx17__normal_iteratorIPiSt6vectorIiSaIiEEEEliNS0_5__ops15_Iter_less_iterEEvT_T0_SA_T1_T2_, symObjAddr: 0x455C, symBinAddr: 0x10000738E, symSize: 0x1E4 }
  - { offsetInCU: 0x282BB, offset: 0x282BB, size: 0x8, addend: 0x0, symName: __ZNSt15__new_allocatorINSt8__detail10_Hash_nodeISt4pairIKiiELb0EEEE10deallocateEPS5_m, symObjAddr: 0x44E0, symBinAddr: 0x100007312, symSize: 0x30 }
  - { offsetInCU: 0x282C3, offset: 0x282C3, size: 0x8, addend: 0x0, symName: __ZNSt10_HashtableIiSt4pairIKiiESaIS2_ENSt8__detail10_Select1stESt8equal_toIiESt4hashIiENS4_18_Mod_range_hashingENS4_20_Default_ranged_hashENS4_20_Prime_rehash_policyENS4_17_Hashtable_traitsILb0ELb0ELb1EEEE19_M_allocate_bucketsEm, symObjAddr: 0x4510, symBinAddr: 0x100007342, symSize: 0x4C }
  - { offsetInCU: 0x283D9, offset: 0x283D9, size: 0x8, addend: 0x0, symName: __ZNSt5tupleIJRKiEEC1EOS2_, symObjAddr: 0x44BA, symBinAddr: 0x1000072EC, symSize: 0x26 }
  - { offsetInCU: 0x283E1, offset: 0x283E1, size: 0x8, addend: 0x0, symName: __ZNSt15__new_allocatorINSt8__detail10_Hash_nodeISt4pairIKiiELb0EEEE10deallocateEPS5_m, symObjAddr: 0x44E0, symBinAddr: 0x100007312, symSize: 0x30 }
  - { offsetInCU: 0x283FC, offset: 0x283FC, size: 0x8, addend: 0x0, symName: __ZNSt15__new_allocatorINSt8__detail10_Hash_nodeISt4pairIKiiELb0EEEE8allocateEmPKv, symObjAddr: 0x4452, symBinAddr: 0x100007284, symSize: 0x68 }
  - { offsetInCU: 0x28486, offset: 0x28486, size: 0x8, addend: 0x0, symName: __ZNKSt8__detail15_Hash_code_baseIiSt4pairIKiiENS_10_Select1stESt4hashIiENS_18_Mod_range_hashingENS_20_Default_ranged_hashELb0EE15_M_bucket_indexERKNS_16_Hash_node_valueIS3_Lb0EEEm, symObjAddr: 0x43F6, symBinAddr: 0x100007228, symSize: 0x5C }
  - { offsetInCU: 0x2848E, offset: 0x2848E, size: 0x8, addend: 0x0, symName: __ZNSt15__new_allocatorINSt8__detail10_Hash_nodeISt4pairIKiiELb0EEEE8allocateEmPKv, symObjAddr: 0x4452, symBinAddr: 0x100007284, symSize: 0x68 }
  - { offsetInCU: 0x284DD, offset: 0x284DD, size: 0x8, addend: 0x0, symName: __ZNKSt8__detail15_Hashtable_baseIiSt4pairIKiiENS_10_Select1stESt8equal_toIiESt4hashIiENS_18_Mod_range_hashingENS_20_Default_ranged_hashENS_17_Hashtable_traitsILb0ELb0ELb1EEEE13_M_key_equalsERS2_RKNS_16_Hash_node_valueIS3_Lb0EEE, symObjAddr: 0x439C, symBinAddr: 0x1000071CE, symSize: 0x5A }
  - { offsetInCU: 0x284E5, offset: 0x284E5, size: 0x8, addend: 0x0, symName: __ZNKSt8__detail15_Hash_code_baseIiSt4pairIKiiENS_10_Select1stESt4hashIiENS_18_Mod_range_hashingENS_20_Default_ranged_hashELb0EE15_M_bucket_indexERKNS_16_Hash_node_valueIS3_Lb0EEEm, symObjAddr: 0x43F6, symBinAddr: 0x100007228, symSize: 0x5C }
  - { offsetInCU: 0x28535, offset: 0x28535, size: 0x8, addend: 0x0, symName: __ZNSt8__detail15_Hashtable_baseIiSt4pairIKiiENS_10_Select1stESt8equal_toIiESt4hashIiENS_18_Mod_range_hashingENS_20_Default_ranged_hashENS_17_Hashtable_traitsILb0ELb0ELb1EEEE9_S_equalsEmRKNS_21_Hash_node_code_cacheILb0EEE, symObjAddr: 0x4389, symBinAddr: 0x1000071BB, symSize: 0x13 }
  - { offsetInCU: 0x2853D, offset: 0x2853D, size: 0x8, addend: 0x0, symName: __ZNKSt8__detail15_Hashtable_baseIiSt4pairIKiiENS_10_Select1stESt8equal_toIiESt4hashIiENS_18_Mod_range_hashingENS_20_Default_ranged_hashENS_17_Hashtable_traitsILb0ELb0ELb1EEEE13_M_key_equalsERS2_RKNS_16_Hash_node_valueIS3_Lb0EEE, symObjAddr: 0x439C, symBinAddr: 0x1000071CE, symSize: 0x5A }
  - { offsetInCU: 0x2856B, offset: 0x2856B, size: 0x8, addend: 0x0, symName: __ZNSt15__new_allocatorIPNSt8__detail15_Hash_node_baseEE10deallocateEPS2_m, symObjAddr: 0x4358, symBinAddr: 0x10000718A, symSize: 0x31 }
  - { offsetInCU: 0x28573, offset: 0x28573, size: 0x8, addend: 0x0, symName: __ZNSt8__detail15_Hashtable_baseIiSt4pairIKiiENS_10_Select1stESt8equal_toIiESt4hashIiENS_18_Mod_range_hashingENS_20_Default_ranged_hashENS_17_Hashtable_traitsILb0ELb0ELb1EEEE9_S_equalsEmRKNS_21_Hash_node_code_cacheILb0EEE, symObjAddr: 0x4389, symBinAddr: 0x1000071BB, symSize: 0x13 }
  - { offsetInCU: 0x28623, offset: 0x28623, size: 0x8, addend: 0x0, symName: __ZNSt15__new_allocatorIPNSt8__detail15_Hash_node_baseEED2Ev, symObjAddr: 0x434C, symBinAddr: 0x10000717E, symSize: 0xC }
  - { offsetInCU: 0x28696, offset: 0x28696, size: 0x8, addend: 0x0, symName: __ZSt9addressofIPNSt8__detail15_Hash_node_baseEEPT_RS3_, symObjAddr: 0x4332, symBinAddr: 0x100007164, symSize: 0x1A }
  - { offsetInCU: 0x2869E, offset: 0x2869E, size: 0x8, addend: 0x0, symName: __ZNSt15__new_allocatorIPNSt8__detail15_Hash_node_baseEED2Ev, symObjAddr: 0x434C, symBinAddr: 0x10000717E, symSize: 0xC }
  - { offsetInCU: 0x2867B, offset: 0x2867B, size: 0x8, addend: 0x0, symName: __ZNSt19__ptr_traits_ptr_toIPNSt8__detail10_Hash_nodeISt4pairIKiiELb0EEES5_Lb0EE10pointer_toERS5_, symObjAddr: 0x4318, symBinAddr: 0x10000714A, symSize: 0x1A }
  - { offsetInCU: 0x28683, offset: 0x28683, size: 0x8, addend: 0x0, symName: __ZSt9addressofIPNSt8__detail15_Hash_node_baseEEPT_RS3_, symObjAddr: 0x4332, symBinAddr: 0x100007164, symSize: 0x1A }
  - { offsetInCU: 0x286E3, offset: 0x286E3, size: 0x8, addend: 0x0, symName: __ZNSt8__detail21_Hashtable_ebo_helperILi0ESaINS_10_Hash_nodeISt4pairIKiiELb0EEEELb1EE6_M_getEv, symObjAddr: 0x430A, symBinAddr: 0x10000713C, symSize: 0xE }
  - { offsetInCU: 0x286EB, offset: 0x286EB, size: 0x8, addend: 0x0, symName: __ZNSt19__ptr_traits_ptr_toIPNSt8__detail10_Hash_nodeISt4pairIKiiELb0EEES5_Lb0EE10pointer_toERS5_, symObjAddr: 0x4318, symBinAddr: 0x10000714A, symSize: 0x1A }
  - { offsetInCU: 0x287CC, offset: 0x287CC, size: 0x8, addend: 0x0, symName: __ZSt13__copy_move_aILb0EN9__gnu_cxx17__normal_iteratorIPKiSt6vectorIiSaIiEEEEPiET1_T0_SA_S9_, symObjAddr: 0x42A0, symBinAddr: 0x1000070D2, symSize: 0x6A }
  - { offsetInCU: 0x287D4, offset: 0x287D4, size: 0x8, addend: 0x0, symName: __ZNSt8__detail21_Hashtable_ebo_helperILi0ESaINS_10_Hash_nodeISt4pairIKiiELb0EEEELb1EE6_M_getEv, symObjAddr: 0x430A, symBinAddr: 0x10000713C, symSize: 0xE }
  - { offsetInCU: 0x28840, offset: 0x28840, size: 0x8, addend: 0x0, symName: __ZSt12__miter_baseIN9__gnu_cxx17__normal_iteratorIPKiSt6vectorIiSaIiEEEEET_S8_, symObjAddr: 0x4292, symBinAddr: 0x1000070C4, symSize: 0xE }
  - { offsetInCU: 0x28848, offset: 0x28848, size: 0x8, addend: 0x0, symName: __ZSt13__copy_move_aILb0EN9__gnu_cxx17__normal_iteratorIPKiSt6vectorIiSaIiEEEEPiET1_T0_SA_S9_, symObjAddr: 0x42A0, symBinAddr: 0x1000070D2, symSize: 0x6A }
  - { offsetInCU: 0x28836, offset: 0x28836, size: 0x8, addend: 0x0, symName: __ZNK9__gnu_cxx5__ops14_Val_less_iterclIiNS_17__normal_iteratorIPiSt6vectorIiSaIiEEEEEEbRT_T0_, symObjAddr: 0x425E, symBinAddr: 0x100007090, symSize: 0x34 }
  - { offsetInCU: 0x2883E, offset: 0x2883E, size: 0x8, addend: 0x0, symName: __ZSt12__miter_baseIN9__gnu_cxx17__normal_iteratorIPKiSt6vectorIiSaIiEEEEET_S8_, symObjAddr: 0x4292, symBinAddr: 0x1000070C4, symSize: 0xE }
  - { offsetInCU: 0x2899C, offset: 0x2899C, size: 0x8, addend: 0x0, symName: __ZSt22__copy_move_backward_aILb1EN9__gnu_cxx17__normal_iteratorIPiSt6vectorIiSaIiEEEES6_ET1_T0_S8_S7_, symObjAddr: 0x41F4, symBinAddr: 0x100007026, symSize: 0x6A }
  - { offsetInCU: 0x289A4, offset: 0x289A4, size: 0x8, addend: 0x0, symName: __ZNK9__gnu_cxx5__ops14_Val_less_iterclIiNS_17__normal_iteratorIPiSt6vectorIiSaIiEEEEEEbRT_T0_, symObjAddr: 0x425E, symBinAddr: 0x100007090, symSize: 0x34 }
  - { offsetInCU: 0x289CC, offset: 0x289CC, size: 0x8, addend: 0x0, symName: __ZSt12__miter_baseIN9__gnu_cxx17__normal_iteratorIPiSt6vectorIiSaIiEEEEET_S7_, symObjAddr: 0x41E6, symBinAddr: 0x100007018, symSize: 0xE }
  - { offsetInCU: 0x289D4, offset: 0x289D4, size: 0x8, addend: 0x0, symName: __ZSt22__copy_move_backward_aILb1EN9__gnu_cxx17__normal_iteratorIPiSt6vectorIiSaIiEEEES6_ET1_T0_S8_S7_, symObjAddr: 0x41F4, symBinAddr: 0x100007026, symSize: 0x6A }
  - { offsetInCU: 0x28A55, offset: 0x28A55, size: 0x8, addend: 0x0, symName: __ZSt10__pop_heapIN9__gnu_cxx17__normal_iteratorIPiSt6vectorIiSaIiEEEENS0_5__ops15_Iter_less_iterEEvT_S9_S9_RT0_, symObjAddr: 0x4152, symBinAddr: 0x100006F84, symSize: 0x94 }
  - { offsetInCU: 0x28A5D, offset: 0x28A5D, size: 0x8, addend: 0x0, symName: __ZSt12__miter_baseIN9__gnu_cxx17__normal_iteratorIPiSt6vectorIiSaIiEEEEET_S7_, symObjAddr: 0x41E6, symBinAddr: 0x100007018, symSize: 0xE }
  - { offsetInCU: 0x28B17, offset: 0x28B17, size: 0x8, addend: 0x0, symName: __ZSt11__make_heapIN9__gnu_cxx17__normal_iteratorIPiSt6vectorIiSaIiEEEENS0_5__ops15_Iter_less_iterEEvT_S9_RT0_, symObjAddr: 0x4086, symBinAddr: 0x100006EB8, symSize: 0xCC }
  - { offsetInCU: 0x28B1F, offset: 0x28B1F, size: 0x8, addend: 0x0, symName: __ZSt10__pop_heapIN9__gnu_cxx17__normal_iteratorIPiSt6vectorIiSaIiEEEENS0_5__ops15_Iter_less_iterEEvT_S9_S9_RT0_, symObjAddr: 0x4152, symBinAddr: 0x100006F84, symSize: 0x94 }
  - { offsetInCU: 0x28B3F, offset: 0x28B3F, size: 0x8, addend: 0x0, symName: __ZN9__gnu_cxx16__aligned_bufferISt4pairIKiiEE7_M_addrEv, symObjAddr: 0x4078, symBinAddr: 0x100006EAA, symSize: 0xE }
  - { offsetInCU: 0x28B47, offset: 0x28B47, size: 0x8, addend: 0x0, symName: __ZSt11__make_heapIN9__gnu_cxx17__normal_iteratorIPiSt6vectorIiSaIiEEEENS0_5__ops15_Iter_less_iterEEvT_S9_RT0_, symObjAddr: 0x4086, symBinAddr: 0x100006EB8, symSize: 0xCC }
  - { offsetInCU: 0x28B71, offset: 0x28B71, size: 0x8, addend: 0x0, symName: __ZNSt10_HashtableIiSt4pairIKiiESaIS2_ENSt8__detail10_Select1stESt8equal_toIiESt4hashIiENS4_18_Mod_range_hashingENS4_20_Default_ranged_hashENS4_20_Prime_rehash_policyENS4_17_Hashtable_traitsILb0ELb0ELb1EEEE13_M_rehash_auxEmSt17integral_constantIbLb1EE, symObjAddr: 0x3EFE, symBinAddr: 0x100006D30, symSize: 0x17A }
  - { offsetInCU: 0x28D93, offset: 0x28D93, size: 0x8, addend: 0x0, symName: __ZSt12__to_addressINSt8__detail10_Hash_nodeISt4pairIKiiELb0EEEEPT_S7_, symObjAddr: 0x3EF0, symBinAddr: 0x100006D22, symSize: 0xE }
  - { offsetInCU: 0x28D9B, offset: 0x28D9B, size: 0x8, addend: 0x0, symName: __ZNSt10_HashtableIiSt4pairIKiiESaIS2_ENSt8__detail10_Select1stESt8equal_toIiESt4hashIiENS4_18_Mod_range_hashingENS4_20_Default_ranged_hashENS4_20_Prime_rehash_policyENS4_17_Hashtable_traitsILb0ELb0ELb1EEEE13_M_rehash_auxEmSt17integral_constantIbLb1EE, symObjAddr: 0x3EFE, symBinAddr: 0x100006D30, symSize: 0x17A }
  - { offsetInCU: 0x28DC7, offset: 0x28DC7, size: 0x8, addend: 0x0, symName: __ZNSt10_Head_baseILm0ERKiLb0EEC2ES1_, symObjAddr: 0x3ED6, symBinAddr: 0x100006D08, symSize: 0x1A }
  - { offsetInCU: 0x28DCF, offset: 0x28DCF, size: 0x8, addend: 0x0, symName: __ZSt12__to_addressINSt8__detail10_Hash_nodeISt4pairIKiiELb0EEEEPT_S7_, symObjAddr: 0x3EF0, symBinAddr: 0x100006D22, symSize: 0xE }
  - { offsetInCU: 0x28DDF, offset: 0x28DDF, size: 0x8, addend: 0x0, symName: __ZNKSt10_HashtableIiSt4pairIKiiESaIS2_ENSt8__detail10_Select1stESt8equal_toIiESt4hashIiENS4_18_Mod_range_hashingENS4_20_Default_ranged_hashENS4_20_Prime_rehash_policyENS4_17_Hashtable_traitsILb0ELb0ELb1EEEE15_M_bucket_indexERKNS4_16_Hash_node_valueIS2_Lb0EEE, symObjAddr: 0x3EA8, symBinAddr: 0x100006CDA, symSize: 0x2E }
  - { offsetInCU: 0x28E22, offset: 0x28E22, size: 0x8, addend: 0x0, symName: __ZNKSt8__detail15_Hashtable_baseIiSt4pairIKiiENS_10_Select1stESt8equal_toIiESt4hashIiENS_18_Mod_range_hashingENS_20_Default_ranged_hashENS_17_Hashtable_traitsILb0ELb0ELb1EEEE9_M_equalsERS2_mRKNS_16_Hash_node_valueIS3_Lb0EEE, symObjAddr: 0x3E50, symBinAddr: 0x100006C82, symSize: 0x58 }
  - { offsetInCU: 0x28E2A, offset: 0x28E2A, size: 0x8, addend: 0x0, symName: __ZNKSt10_HashtableIiSt4pairIKiiESaIS2_ENSt8__detail10_Select1stESt8equal_toIiESt4hashIiENS4_18_Mod_range_hashingENS4_20_Default_ranged_hashENS4_20_Prime_rehash_policyENS4_17_Hashtable_traitsILb0ELb0ELb1EEEE15_M_bucket_indexERKNS4_16_Hash_node_valueIS2_Lb0EEE, symObjAddr: 0x3EA8, symBinAddr: 0x100006CDA, symSize: 0x2E }
  - { offsetInCU: 0x28E8D, offset: 0x28E8D, size: 0x8, addend: 0x0, symName: __ZNKSt8__detail21_Hashtable_ebo_helperILi1ESt4hashIiELb1EE7_M_cgetEv, symObjAddr: 0x3E42, symBinAddr: 0x100006C74, symSize: 0xE }
  - { offsetInCU: 0x28E95, offset: 0x28E95, size: 0x8, addend: 0x0, symName: __ZNKSt8__detail15_Hashtable_baseIiSt4pairIKiiENS_10_Select1stESt8equal_toIiESt4hashIiENS_18_Mod_range_hashingENS_20_Default_ranged_hashENS_17_Hashtable_traitsILb0ELb0ELb1EEEE9_M_equalsERS2_mRKNS_16_Hash_node_valueIS3_Lb0EEE, symObjAddr: 0x3E50, symBinAddr: 0x100006C82, symSize: 0x58 }
  - { offsetInCU: 0x28F53, offset: 0x28F53, size: 0x8, addend: 0x0, symName: __ZNSt19__ptr_traits_ptr_toIPPNSt8__detail15_Hash_node_baseES2_Lb0EE10pointer_toERS2_, symObjAddr: 0x3E27, symBinAddr: 0x100006C59, symSize: 0x1B }
  - { offsetInCU: 0x28F84, offset: 0x28F84, size: 0x8, addend: 0x0, symName: __ZNSt8__detail16_Hashtable_allocISaINS_10_Hash_nodeISt4pairIKiiELb0EEEEE22_M_deallocate_node_ptrEPS5_, symObjAddr: 0x3DCC, symBinAddr: 0x100006BFE, symSize: 0x5B }
  - { offsetInCU: 0x28F8C, offset: 0x28F8C, size: 0x8, addend: 0x0, symName: __ZNSt19__ptr_traits_ptr_toIPPNSt8__detail15_Hash_node_baseES2_Lb0EE10pointer_toERS2_, symObjAddr: 0x3E27, symBinAddr: 0x100006C59, symSize: 0x1B }
  - { offsetInCU: 0x2905A, offset: 0x2905A, size: 0x8, addend: 0x0, symName: __ZNSt8__detail16_Hashtable_allocISaINS_10_Hash_nodeISt4pairIKiiELb0EEEEE17_M_node_allocatorEv, symObjAddr: 0x3DB2, symBinAddr: 0x100006BE4, symSize: 0x1A }
  - { offsetInCU: 0x29062, offset: 0x29062, size: 0x8, addend: 0x0, symName: __ZNSt8__detail16_Hashtable_allocISaINS_10_Hash_nodeISt4pairIKiiELb0EEEEE22_M_deallocate_node_ptrEPS5_, symObjAddr: 0x3DCC, symBinAddr: 0x100006BFE, symSize: 0x5B }
  - { offsetInCU: 0x29124, offset: 0x29124, size: 0x8, addend: 0x0, symName: __ZSt4copyIN9__gnu_cxx17__normal_iteratorIPKiSt6vectorIiSaIiEEEEPiET0_T_SA_S9_, symObjAddr: 0x3D66, symBinAddr: 0x100006B98, symSize: 0x4C }
  - { offsetInCU: 0x291A6, offset: 0x291A6, size: 0x8, addend: 0x0, symName: __ZSt14__relocate_a_1IiiENSt9enable_ifIXsrSt24__is_bitwise_relocatableIT_vE5valueEPS2_E4typeES4_S4_S4_RSaIT0_E, symObjAddr: 0x3D03, symBinAddr: 0x100006B35, symSize: 0x63 }
  - { offsetInCU: 0x291AE, offset: 0x291AE, size: 0x8, addend: 0x0, symName: __ZSt4copyIN9__gnu_cxx17__normal_iteratorIPKiSt6vectorIiSaIiEEEEPiET0_T_SA_S9_, symObjAddr: 0x3D66, symBinAddr: 0x100006B98, symSize: 0x4C }
  - { offsetInCU: 0x291F8, offset: 0x291F8, size: 0x8, addend: 0x0, symName: __ZSt12__niter_baseIPiET_S1_, symObjAddr: 0x3CF5, symBinAddr: 0x100006B27, symSize: 0xE }
  - { offsetInCU: 0x29200, offset: 0x29200, size: 0x8, addend: 0x0, symName: __ZSt14__relocate_a_1IiiENSt9enable_ifIXsrSt24__is_bitwise_relocatableIT_vE5valueEPS2_E4typeES4_S4_S4_RSaIT0_E, symObjAddr: 0x3D03, symBinAddr: 0x100006B35, symSize: 0x63 }
  - { offsetInCU: 0x29210, offset: 0x29210, size: 0x8, addend: 0x0, symName: __ZNSt15__new_allocatorIiE8allocateEmPKv, symObjAddr: 0x3C8E, symBinAddr: 0x100006AC0, symSize: 0x67 }
  - { offsetInCU: 0x29218, offset: 0x29218, size: 0x8, addend: 0x0, symName: __ZSt12__niter_baseIPiET_S1_, symObjAddr: 0x3CF5, symBinAddr: 0x100006B27, symSize: 0xE }
  - { offsetInCU: 0x2929A, offset: 0x2929A, size: 0x8, addend: 0x0, symName: __ZNSt6vectorIiSaIiEE11_S_max_sizeERKS0_, symObjAddr: 0x3C33, symBinAddr: 0x100006A65, symSize: 0x5B }
  - { offsetInCU: 0x2945A, offset: 0x2945A, size: 0x8, addend: 0x0, symName: __ZSt25__unguarded_linear_insertIN9__gnu_cxx17__normal_iteratorIPiSt6vectorIiSaIiEEEENS0_5__ops14_Val_less_iterEEvT_T0_, symObjAddr: 0x3B81, symBinAddr: 0x1000069B3, symSize: 0xB2 }
  - { offsetInCU: 0x29462, offset: 0x29462, size: 0x8, addend: 0x0, symName: __ZNSt6vectorIiSaIiEE11_S_max_sizeERKS0_, symObjAddr: 0x3C33, symBinAddr: 0x100006A65, symSize: 0x5B }
  - { offsetInCU: 0x294D9, offset: 0x294D9, size: 0x8, addend: 0x0, symName: __ZSt13move_backwardIN9__gnu_cxx17__normal_iteratorIPiSt6vectorIiSaIiEEEES6_ET0_T_S8_S7_, symObjAddr: 0x3B36, symBinAddr: 0x100006968, symSize: 0x4B }
  - { offsetInCU: 0x294E1, offset: 0x294E1, size: 0x8, addend: 0x0, symName: __ZSt25__unguarded_linear_insertIN9__gnu_cxx17__normal_iteratorIPiSt6vectorIiSaIiEEEENS0_5__ops14_Val_less_iterEEvT_T0_, symObjAddr: 0x3B81, symBinAddr: 0x1000069B3, symSize: 0xB2 }
  - { offsetInCU: 0x29493, offset: 0x29493, size: 0x8, addend: 0x0, symName: __ZNK9__gnu_cxx5__ops15_Iter_less_iterclINS_17__normal_iteratorIPiSt6vectorIiSaIiEEEES8_EEbT_T0_, symObjAddr: 0x3AFA, symBinAddr: 0x10000692C, symSize: 0x3C }
  - { offsetInCU: 0x2949B, offset: 0x2949B, size: 0x8, addend: 0x0, symName: __ZSt13move_backwardIN9__gnu_cxx17__normal_iteratorIPiSt6vectorIiSaIiEEEES6_ET0_T_S8_S7_, symObjAddr: 0x3B36, symBinAddr: 0x100006968, symSize: 0x4B }
  - { offsetInCU: 0x295F3, offset: 0x295F3, size: 0x8, addend: 0x0, symName: __ZSt21__unguarded_partitionIN9__gnu_cxx17__normal_iteratorIPiSt6vectorIiSaIiEEEENS0_5__ops15_Iter_less_iterEET_S9_S9_S9_T0_, symObjAddr: 0x3A41, symBinAddr: 0x100006873, symSize: 0xB9 }
  - { offsetInCU: 0x29686, offset: 0x29686, size: 0x8, addend: 0x0, symName: __ZSt22__move_median_to_firstIN9__gnu_cxx17__normal_iteratorIPiSt6vectorIiSaIiEEEENS0_5__ops15_Iter_less_iterEEvT_S9_S9_S9_T0_, symObjAddr: 0x391D, symBinAddr: 0x10000674F, symSize: 0x124 }
  - { offsetInCU: 0x2968E, offset: 0x2968E, size: 0x8, addend: 0x0, symName: __ZSt21__unguarded_partitionIN9__gnu_cxx17__normal_iteratorIPiSt6vectorIiSaIiEEEENS0_5__ops15_Iter_less_iterEET_S9_S9_S9_T0_, symObjAddr: 0x3A41, symBinAddr: 0x100006873, symSize: 0xB9 }
  - { offsetInCU: 0x29708, offset: 0x29708, size: 0x8, addend: 0x0, symName: __ZSt11__sort_heapIN9__gnu_cxx17__normal_iteratorIPiSt6vectorIiSaIiEEEENS0_5__ops15_Iter_less_iterEEvT_S9_RT0_, symObjAddr: 0x38C1, symBinAddr: 0x1000066F3, symSize: 0x5C }
  - { offsetInCU: 0x29710, offset: 0x29710, size: 0x8, addend: 0x0, symName: __ZSt22__move_median_to_firstIN9__gnu_cxx17__normal_iteratorIPiSt6vectorIiSaIiEEEENS0_5__ops15_Iter_less_iterEEvT_S9_S9_S9_T0_, symObjAddr: 0x391D, symBinAddr: 0x10000674F, symSize: 0x124 }
  - { offsetInCU: 0x29788, offset: 0x29788, size: 0x8, addend: 0x0, symName: __ZSt13__heap_selectIN9__gnu_cxx17__normal_iteratorIPiSt6vectorIiSaIiEEEENS0_5__ops15_Iter_less_iterEEvT_S9_S9_T0_, symObjAddr: 0x3832, symBinAddr: 0x100006664, symSize: 0x8F }
  - { offsetInCU: 0x29790, offset: 0x29790, size: 0x8, addend: 0x0, symName: __ZSt11__sort_heapIN9__gnu_cxx17__normal_iteratorIPiSt6vectorIiSaIiEEEENS0_5__ops15_Iter_less_iterEEvT_S9_RT0_, symObjAddr: 0x38C1, symBinAddr: 0x1000066F3, symSize: 0x5C }
  - { offsetInCU: 0x29763, offset: 0x29763, size: 0x8, addend: 0x0, symName: __ZN9__gnu_cxx16__aligned_bufferISt4pairIKiiEE6_M_ptrEv, symObjAddr: 0x3818, symBinAddr: 0x10000664A, symSize: 0x1A }
  - { offsetInCU: 0x2976B, offset: 0x2976B, size: 0x8, addend: 0x0, symName: __ZSt13__heap_selectIN9__gnu_cxx17__normal_iteratorIPiSt6vectorIiSaIiEEEENS0_5__ops15_Iter_less_iterEEvT_S9_S9_T0_, symObjAddr: 0x3832, symBinAddr: 0x100006664, symSize: 0x8F }
  - { offsetInCU: 0x29810, offset: 0x29810, size: 0x8, addend: 0x0, symName: __ZNSt8__detail19_Node_iterator_baseISt4pairIKiiELb0EEC2EPNS_10_Hash_nodeIS3_Lb0EEE, symObjAddr: 0x37FE, symBinAddr: 0x100006630, symSize: 0x1A }
  - { offsetInCU: 0x29818, offset: 0x29818, size: 0x8, addend: 0x0, symName: __ZN9__gnu_cxx16__aligned_bufferISt4pairIKiiEE6_M_ptrEv, symObjAddr: 0x3818, symBinAddr: 0x10000664A, symSize: 0x1A }
  - { offsetInCU: 0x297FA, offset: 0x297FA, size: 0x8, addend: 0x0, symName: __ZNSt10_HashtableIiSt4pairIKiiESaIS2_ENSt8__detail10_Select1stESt8equal_toIiESt4hashIiENS4_18_Mod_range_hashingENS4_20_Default_ranged_hashENS4_20_Prime_rehash_policyENS4_17_Hashtable_traitsILb0ELb0ELb1EEEE22_M_insert_bucket_beginEmPNS4_10_Hash_nodeIS2_Lb0EEE, symObjAddr: 0x370E, symBinAddr: 0x100006540, symSize: 0xF0 }
  - { offsetInCU: 0x29802, offset: 0x29802, size: 0x8, addend: 0x0, symName: __ZNSt8__detail19_Node_iterator_baseISt4pairIKiiELb0EEC2EPNS_10_Hash_nodeIS3_Lb0EEE, symObjAddr: 0x37FE, symBinAddr: 0x100006630, symSize: 0x1A }
  - { offsetInCU: 0x29851, offset: 0x29851, size: 0x8, addend: 0x0, symName: __ZNKSt8__detail15_Hash_code_baseIiSt4pairIKiiENS_10_Select1stESt4hashIiENS_18_Mod_range_hashingENS_20_Default_ranged_hashELb0EE13_M_store_codeERNS_21_Hash_node_code_cacheILb0EEEm, symObjAddr: 0x36FA, symBinAddr: 0x10000652C, symSize: 0x14 }
  - { offsetInCU: 0x29898, offset: 0x29898, size: 0x8, addend: 0x0, symName: __ZNSt10_HashtableIiSt4pairIKiiESaIS2_ENSt8__detail10_Select1stESt8equal_toIiESt4hashIiENS4_18_Mod_range_hashingENS4_20_Default_ranged_hashENS4_20_Prime_rehash_policyENS4_17_Hashtable_traitsILb0ELb0ELb1EEEE9_M_rehashEmRKm, symObjAddr: 0x3690, symBinAddr: 0x1000064C2, symSize: 0x6A }
  - { offsetInCU: 0x298A0, offset: 0x298A0, size: 0x8, addend: 0x0, symName: __ZNKSt8__detail15_Hash_code_baseIiSt4pairIKiiENS_10_Select1stESt4hashIiENS_18_Mod_range_hashingENS_20_Default_ranged_hashELb0EE13_M_store_codeERNS_21_Hash_node_code_cacheILb0EEEm, symObjAddr: 0x36FA, symBinAddr: 0x10000652C, symSize: 0x14 }
  - { offsetInCU: 0x298EF, offset: 0x298EF, size: 0x8, addend: 0x0, symName: __ZNSt8__detail16_Hashtable_allocISaINS_10_Hash_nodeISt4pairIKiiELb0EEEEE16_M_allocate_nodeIJRKSt21piecewise_construct_tSt5tupleIJRS3_EESC_IJEEEEEPS5_DpOT_, symObjAddr: 0x343E, symBinAddr: 0x100006270, symSize: 0x252 }
  - { offsetInCU: 0x298F7, offset: 0x298F7, size: 0x8, addend: 0x0, symName: __ZNSt10_HashtableIiSt4pairIKiiESaIS2_ENSt8__detail10_Select1stESt8equal_toIiESt4hashIiENS4_18_Mod_range_hashingENS4_20_Default_ranged_hashENS4_20_Prime_rehash_policyENS4_17_Hashtable_traitsILb0ELb0ELb1EEEE9_M_rehashEmRKm, symObjAddr: 0x3690, symBinAddr: 0x1000064C2, symSize: 0x6A }
  - { offsetInCU: 0x29B25, offset: 0x29B25, size: 0x8, addend: 0x0, symName: __ZNSt8__detail10_Hash_nodeISt4pairIKiiELb0EEC1Ev, symObjAddr: 0x3422, symBinAddr: 0x100006254, symSize: 0x1C }
  - { offsetInCU: 0x29B7E, offset: 0x29B7E, size: 0x8, addend: 0x0, symName: __ZSt7forwardISt5tupleIJEEEOT_RNSt16remove_referenceIS2_E4typeE, symObjAddr: 0x3414, symBinAddr: 0x100006246, symSize: 0xE }
  - { offsetInCU: 0x29B86, offset: 0x29B86, size: 0x8, addend: 0x0, symName: __ZNSt8__detail10_Hash_nodeISt4pairIKiiELb0EEC1Ev, symObjAddr: 0x3422, symBinAddr: 0x100006254, symSize: 0x1C }
  - { offsetInCU: 0x29BE0, offset: 0x29BE0, size: 0x8, addend: 0x0, symName: __ZSt7forwardISt5tupleIJRKiEEEOT_RNSt16remove_referenceIS4_E4typeE, symObjAddr: 0x3406, symBinAddr: 0x100006238, symSize: 0xE }
  - { offsetInCU: 0x29BE8, offset: 0x29BE8, size: 0x8, addend: 0x0, symName: __ZSt7forwardISt5tupleIJEEEOT_RNSt16remove_referenceIS2_E4typeE, symObjAddr: 0x3414, symBinAddr: 0x100006246, symSize: 0xE }
  - { offsetInCU: 0x29C4B, offset: 0x29C4B, size: 0x8, addend: 0x0, symName: __ZSt7forwardIRKSt21piecewise_construct_tEOT_RNSt16remove_referenceIS3_E4typeE, symObjAddr: 0x33F8, symBinAddr: 0x10000622A, symSize: 0xE }
  - { offsetInCU: 0x29C53, offset: 0x29C53, size: 0x8, addend: 0x0, symName: __ZSt7forwardISt5tupleIJRKiEEEOT_RNSt16remove_referenceIS4_E4typeE, symObjAddr: 0x3406, symBinAddr: 0x100006238, symSize: 0xE }
  - { offsetInCU: 0x29C72, offset: 0x29C72, size: 0x8, addend: 0x0, symName: __ZNSt11_Tuple_implILm0EJRKiEEC2ES1_, symObjAddr: 0x33D2, symBinAddr: 0x100006204, symSize: 0x26 }
  - { offsetInCU: 0x29C7A, offset: 0x29C7A, size: 0x8, addend: 0x0, symName: __ZSt7forwardIRKSt21piecewise_construct_tEOT_RNSt16remove_referenceIS3_E4typeE, symObjAddr: 0x33F8, symBinAddr: 0x10000622A, symSize: 0xE }
  - { offsetInCU: 0x29C8B, offset: 0x29C8B, size: 0x8, addend: 0x0, symName: __ZNKSt10_HashtableIiSt4pairIKiiESaIS2_ENSt8__detail10_Select1stESt8equal_toIiESt4hashIiENS4_18_Mod_range_hashingENS4_20_Default_ranged_hashENS4_20_Prime_rehash_policyENS4_17_Hashtable_traitsILb0ELb0ELb1EEEE19_M_find_before_nodeEmRS1_m, symObjAddr: 0x32F8, symBinAddr: 0x10000612A, symSize: 0xDA }
  - { offsetInCU: 0x29D33, offset: 0x29D33, size: 0x8, addend: 0x0, symName: __ZNKSt8__detail15_Hash_code_baseIiSt4pairIKiiENS_10_Select1stESt4hashIiENS_18_Mod_range_hashingENS_20_Default_ranged_hashELb0EE15_M_bucket_indexEmm, symObjAddr: 0x32CA, symBinAddr: 0x1000060FC, symSize: 0x2E }
  - { offsetInCU: 0x29D8A, offset: 0x29D8A, size: 0x8, addend: 0x0, symName: __ZNKSt8__detail15_Hash_code_baseIiSt4pairIKiiENS_10_Select1stESt4hashIiENS_18_Mod_range_hashingENS_20_Default_ranged_hashELb0EE7_M_hashEv, symObjAddr: 0x32B0, symBinAddr: 0x1000060E2, symSize: 0x1A }
  - { offsetInCU: 0x29D92, offset: 0x29D92, size: 0x8, addend: 0x0, symName: __ZNKSt8__detail15_Hash_code_baseIiSt4pairIKiiENS_10_Select1stESt4hashIiENS_18_Mod_range_hashingENS_20_Default_ranged_hashELb0EE15_M_bucket_indexEmm, symObjAddr: 0x32CA, symBinAddr: 0x1000060FC, symSize: 0x2E }
  - { offsetInCU: 0x29DB9, offset: 0x29DB9, size: 0x8, addend: 0x0, symName: __ZNSt8__detail16_Hashtable_allocISaINS_10_Hash_nodeISt4pairIKiiELb0EEEEE21_M_deallocate_bucketsEPPNS_15_Hash_node_baseEm, symObjAddr: 0x323A, symBinAddr: 0x10000606C, symSize: 0x76 }
  - { offsetInCU: 0x29DC1, offset: 0x29DC1, size: 0x8, addend: 0x0, symName: __ZNKSt8__detail15_Hash_code_baseIiSt4pairIKiiENS_10_Select1stESt4hashIiENS_18_Mod_range_hashingENS_20_Default_ranged_hashELb0EE7_M_hashEv, symObjAddr: 0x32B0, symBinAddr: 0x1000060E2, symSize: 0x1A }
  - { offsetInCU: 0x29EFB, offset: 0x29EFB, size: 0x8, addend: 0x0, symName: __ZNKSt10_HashtableIiSt4pairIKiiESaIS2_ENSt8__detail10_Select1stESt8equal_toIiESt4hashIiENS4_18_Mod_range_hashingENS4_20_Default_ranged_hashENS4_20_Prime_rehash_policyENS4_17_Hashtable_traitsILb0ELb0ELb1EEEE21_M_uses_single_bucketEPPNS4_15_Hash_node_baseE, symObjAddr: 0x3214, symBinAddr: 0x100006046, symSize: 0x26 }
  - { offsetInCU: 0x29F03, offset: 0x29F03, size: 0x8, addend: 0x0, symName: __ZNSt8__detail16_Hashtable_allocISaINS_10_Hash_nodeISt4pairIKiiELb0EEEEE21_M_deallocate_bucketsEPPNS_15_Hash_node_baseEm, symObjAddr: 0x323A, symBinAddr: 0x10000606C, symSize: 0x76 }
  - { offsetInCU: 0x29F3E, offset: 0x29F3E, size: 0x8, addend: 0x0, symName: __ZNSt8__detail16_Hashtable_allocISaINS_10_Hash_nodeISt4pairIKiiELb0EEEEE18_M_deallocate_nodeEPS5_, symObjAddr: 0x31B0, symBinAddr: 0x100005FE2, symSize: 0x64 }
  - { offsetInCU: 0x29F46, offset: 0x29F46, size: 0x8, addend: 0x0, symName: __ZNKSt10_HashtableIiSt4pairIKiiESaIS2_ENSt8__detail10_Select1stESt8equal_toIiESt4hashIiENS4_18_Mod_range_hashingENS4_20_Default_ranged_hashENS4_20_Prime_rehash_policyENS4_17_Hashtable_traitsILb0ELb0ELb1EEEE21_M_uses_single_bucketEPPNS4_15_Hash_node_baseE, symObjAddr: 0x3214, symBinAddr: 0x100006046, symSize: 0x26 }
  - { offsetInCU: 0x2A042, offset: 0x2A042, size: 0x8, addend: 0x0, symName: __ZNSt20__uninitialized_copyILb1EE13__uninit_copyIN9__gnu_cxx17__normal_iteratorIPKiSt6vectorIiSaIiEEEEPiEET0_T_SC_SB_, symObjAddr: 0x3183, symBinAddr: 0x100005FB5, symSize: 0x2D }
  - { offsetInCU: 0x2A04A, offset: 0x2A04A, size: 0x8, addend: 0x0, symName: __ZNSt8__detail16_Hashtable_allocISaINS_10_Hash_nodeISt4pairIKiiELb0EEEEE18_M_deallocate_nodeEPS5_, symObjAddr: 0x31B0, symBinAddr: 0x100005FE2, symSize: 0x64 }
  - { offsetInCU: 0x2A115, offset: 0x2A115, size: 0x8, addend: 0x0, symName: __ZSt12__relocate_aIPiS0_SaIiEET0_T_S3_S2_RT1_, symObjAddr: 0x3120, symBinAddr: 0x100005F52, symSize: 0x63 }
  - { offsetInCU: 0x2A11D, offset: 0x2A11D, size: 0x8, addend: 0x0, symName: __ZNSt20__uninitialized_copyILb1EE13__uninit_copyIN9__gnu_cxx17__normal_iteratorIPKiSt6vectorIiSaIiEEEEPiEET0_T_SC_SB_, symObjAddr: 0x3183, symBinAddr: 0x100005FB5, symSize: 0x2D }
  - { offsetInCU: 0x2A184, offset: 0x2A184, size: 0x8, addend: 0x0, symName: __ZNKSt6vectorIiSaIiEE8max_sizeEv, symObjAddr: 0x30FE, symBinAddr: 0x100005F30, symSize: 0x22 }
  - { offsetInCU: 0x2A18C, offset: 0x2A18C, size: 0x8, addend: 0x0, symName: __ZSt12__relocate_aIPiS0_SaIiEET0_T_S3_S2_RT1_, symObjAddr: 0x3120, symBinAddr: 0x100005F52, symSize: 0x63 }
  - { offsetInCU: 0x2A1B3, offset: 0x2A1B3, size: 0x8, addend: 0x0, symName: __ZNSt12_Destroy_auxILb1EE9__destroyIPiEEvT_S3_, symObjAddr: 0x30EF, symBinAddr: 0x100005F21, symSize: 0xF }
  - { offsetInCU: 0x2A1BB, offset: 0x2A1BB, size: 0x8, addend: 0x0, symName: __ZNKSt6vectorIiSaIiEE8max_sizeEv, symObjAddr: 0x30FE, symBinAddr: 0x100005F30, symSize: 0x22 }
  - { offsetInCU: 0x2A1F6, offset: 0x2A1F6, size: 0x8, addend: 0x0, symName: __ZNSt15__new_allocatorIiE10deallocateEPim, symObjAddr: 0x30BE, symBinAddr: 0x100005EF0, symSize: 0x31 }
  - { offsetInCU: 0x2A1FE, offset: 0x2A1FE, size: 0x8, addend: 0x0, symName: __ZNSt12_Destroy_auxILb1EE9__destroyIPiEEvT_S3_, symObjAddr: 0x30EF, symBinAddr: 0x100005F21, symSize: 0xF }
  - { offsetInCU: 0x2A33D, offset: 0x2A33D, size: 0x8, addend: 0x0, symName: __ZSt26__unguarded_insertion_sortIN9__gnu_cxx17__normal_iteratorIPiSt6vectorIiSaIiEEEENS0_5__ops15_Iter_less_iterEEvT_S9_T0_, symObjAddr: 0x306B, symBinAddr: 0x100005E9D, symSize: 0x53 }
  - { offsetInCU: 0x2A3CB, offset: 0x2A3CB, size: 0x8, addend: 0x0, symName: __ZSt16__insertion_sortIN9__gnu_cxx17__normal_iteratorIPiSt6vectorIiSaIiEEEENS0_5__ops15_Iter_less_iterEEvT_S9_T0_, symObjAddr: 0x2F6B, symBinAddr: 0x100005D9D, symSize: 0x100 }
  - { offsetInCU: 0x2A3D3, offset: 0x2A3D3, size: 0x8, addend: 0x0, symName: __ZSt26__unguarded_insertion_sortIN9__gnu_cxx17__normal_iteratorIPiSt6vectorIiSaIiEEEENS0_5__ops15_Iter_less_iterEEvT_S9_T0_, symObjAddr: 0x306B, symBinAddr: 0x100005E9D, symSize: 0x53 }
  - { offsetInCU: 0x2A4B2, offset: 0x2A4B2, size: 0x8, addend: 0x0, symName: __ZSt27__unguarded_partition_pivotIN9__gnu_cxx17__normal_iteratorIPiSt6vectorIiSaIiEEEENS0_5__ops15_Iter_less_iterEET_S9_S9_T0_, symObjAddr: 0x2EBC, symBinAddr: 0x100005CEE, symSize: 0xAF }
  - { offsetInCU: 0x2A4BA, offset: 0x2A4BA, size: 0x8, addend: 0x0, symName: __ZSt16__insertion_sortIN9__gnu_cxx17__normal_iteratorIPiSt6vectorIiSaIiEEEENS0_5__ops15_Iter_less_iterEEvT_S9_T0_, symObjAddr: 0x2F6B, symBinAddr: 0x100005D9D, symSize: 0x100 }
  - { offsetInCU: 0x2A52C, offset: 0x2A52C, size: 0x8, addend: 0x0, symName: __ZSt14__partial_sortIN9__gnu_cxx17__normal_iteratorIPiSt6vectorIiSaIiEEEENS0_5__ops15_Iter_less_iterEEvT_S9_S9_T0_, symObjAddr: 0x2E77, symBinAddr: 0x100005CA9, symSize: 0x45 }
  - { offsetInCU: 0x2A534, offset: 0x2A534, size: 0x8, addend: 0x0, symName: __ZSt27__unguarded_partition_pivotIN9__gnu_cxx17__normal_iteratorIPiSt6vectorIiSaIiEEEENS0_5__ops15_Iter_less_iterEET_S9_S9_T0_, symObjAddr: 0x2EBC, symBinAddr: 0x100005CEE, symSize: 0xAF }
  - { offsetInCU: 0x2A51C, offset: 0x2A51C, size: 0x8, addend: 0x0, symName: __ZSt13__countl_zeroImEiT_, symObjAddr: 0x2E32, symBinAddr: 0x100005C64, symSize: 0x45 }
  - { offsetInCU: 0x2A524, offset: 0x2A524, size: 0x8, addend: 0x0, symName: __ZSt14__partial_sortIN9__gnu_cxx17__normal_iteratorIPiSt6vectorIiSaIiEEEENS0_5__ops15_Iter_less_iterEEvT_S9_S9_T0_, symObjAddr: 0x2E77, symBinAddr: 0x100005CA9, symSize: 0x45 }
  - { offsetInCU: 0x2A59A, offset: 0x2A59A, size: 0x8, addend: 0x0, symName: __ZNSt8__detail21_Hash_node_value_baseISt4pairIKiiEE9_M_valptrEv, symObjAddr: 0x2E18, symBinAddr: 0x100005C4A, symSize: 0x1A }
  - { offsetInCU: 0x2A5A2, offset: 0x2A5A2, size: 0x8, addend: 0x0, symName: __ZSt13__countl_zeroImEiT_, symObjAddr: 0x2E32, symBinAddr: 0x100005C64, symSize: 0x45 }
  - { offsetInCU: 0x2A5C9, offset: 0x2A5C9, size: 0x8, addend: 0x0, symName: __ZNKSt8__detail10_Hash_nodeISt4pairIKiiELb0EE7_M_nextEv, symObjAddr: 0x2E06, symBinAddr: 0x100005C38, symSize: 0x12 }
  - { offsetInCU: 0x2A675, offset: 0x2A675, size: 0x8, addend: 0x0, symName: __ZNSt8__detail14_Node_iteratorISt4pairIKiiELb0ELb0EEC1EPNS_10_Hash_nodeIS3_Lb0EEE, symObjAddr: 0x2DE0, symBinAddr: 0x100005C12, symSize: 0x26 }
  - { offsetInCU: 0x2A67D, offset: 0x2A67D, size: 0x8, addend: 0x0, symName: __ZNKSt8__detail10_Hash_nodeISt4pairIKiiELb0EE7_M_nextEv, symObjAddr: 0x2E06, symBinAddr: 0x100005C38, symSize: 0x12 }
  - { offsetInCU: 0x2A660, offset: 0x2A660, size: 0x8, addend: 0x0, symName: __ZNKSt8__detail14_Node_iteratorISt4pairIKiiELb0ELb0EEptEv, symObjAddr: 0x2DBE, symBinAddr: 0x100005BF0, symSize: 0x22 }
  - { offsetInCU: 0x2A68F, offset: 0x2A68F, size: 0x8, addend: 0x0, symName: __ZNSt10_HashtableIiSt4pairIKiiESaIS2_ENSt8__detail10_Select1stESt8equal_toIiESt4hashIiENS4_18_Mod_range_hashingENS4_20_Default_ranged_hashENS4_20_Prime_rehash_policyENS4_17_Hashtable_traitsILb0ELb0ELb1EEEE21_M_insert_unique_nodeEmmPNS4_10_Hash_nodeIS2_Lb0EEEm, symObjAddr: 0x2CC0, symBinAddr: 0x100005AF2, symSize: 0xFE }
  - { offsetInCU: 0x2A844, offset: 0x2A844, size: 0x8, addend: 0x0, symName: __ZNSt10_HashtableIiSt4pairIKiiESaIS2_ENSt8__detail10_Select1stESt8equal_toIiESt4hashIiENS4_18_Mod_range_hashingENS4_20_Default_ranged_hashENS4_20_Prime_rehash_policyENS4_17_Hashtable_traitsILb0ELb0ELb1EEEE12_Scoped_nodeD1Ev, symObjAddr: 0x2C8A, symBinAddr: 0x100005ABC, symSize: 0x36 }
  - { offsetInCU: 0x2A84C, offset: 0x2A84C, size: 0x8, addend: 0x0, symName: __ZNSt10_HashtableIiSt4pairIKiiESaIS2_ENSt8__detail10_Select1stESt8equal_toIiESt4hashIiENS4_18_Mod_range_hashingENS4_20_Default_ranged_hashENS4_20_Prime_rehash_policyENS4_17_Hashtable_traitsILb0ELb0ELb1EEEE21_M_insert_unique_nodeEmmPNS4_10_Hash_nodeIS2_Lb0EEEm, symObjAddr: 0x2CC0, symBinAddr: 0x100005AF2, symSize: 0xFE }
  - { offsetInCU: 0x2A954, offset: 0x2A954, size: 0x8, addend: 0x0, symName: __ZNSt10_HashtableIiSt4pairIKiiESaIS2_ENSt8__detail10_Select1stESt8equal_toIiESt4hashIiENS4_18_Mod_range_hashingENS4_20_Default_ranged_hashENS4_20_Prime_rehash_policyENS4_17_Hashtable_traitsILb0ELb0ELb1EEEE12_Scoped_nodeC1IJRKSt21piecewise_construct_tSt5tupleIJRS1_EESL_IJEEEEEPNS4_16_Hashtable_allocISaINS4_10_Hash_nodeIS2_Lb0EEEEEEDpOT_, symObjAddr: 0x2C0A, symBinAddr: 0x100005A3C, symSize: 0x80 }
  - { offsetInCU: 0x2A8EE, offset: 0x2A8EE, size: 0x8, addend: 0x0, symName: __ZNSt5tupleIJRKiEEC1ILb1ELb1EEES1_, symObjAddr: 0x2BE4, symBinAddr: 0x100005A16, symSize: 0x26 }
  - { offsetInCU: 0x2A8F6, offset: 0x2A8F6, size: 0x8, addend: 0x0, symName: __ZNSt10_HashtableIiSt4pairIKiiESaIS2_ENSt8__detail10_Select1stESt8equal_toIiESt4hashIiENS4_18_Mod_range_hashingENS4_20_Default_ranged_hashENS4_20_Prime_rehash_policyENS4_17_Hashtable_traitsILb0ELb0ELb1EEEE12_Scoped_nodeC1IJRKSt21piecewise_construct_tSt5tupleIJRS1_EESL_IJEEEEEPNS4_16_Hashtable_allocISaINS4_10_Hash_nodeIS2_Lb0EEEEEEDpOT_, symObjAddr: 0x2C0A, symBinAddr: 0x100005A3C, symSize: 0x80 }
  - { offsetInCU: 0x2A917, offset: 0x2A917, size: 0x8, addend: 0x0, symName: __ZNKSt10_HashtableIiSt4pairIKiiESaIS2_ENSt8__detail10_Select1stESt8equal_toIiESt4hashIiENS4_18_Mod_range_hashingENS4_20_Default_ranged_hashENS4_20_Prime_rehash_policyENS4_17_Hashtable_traitsILb0ELb0ELb1EEEE12_M_find_nodeEmRS1_m, symObjAddr: 0x2B98, symBinAddr: 0x1000059CA, symSize: 0x4C }
  - { offsetInCU: 0x2A997, offset: 0x2A997, size: 0x8, addend: 0x0, symName: __ZNKSt10_HashtableIiSt4pairIKiiESaIS2_ENSt8__detail10_Select1stESt8equal_toIiESt4hashIiENS4_18_Mod_range_hashingENS4_20_Default_ranged_hashENS4_20_Prime_rehash_policyENS4_17_Hashtable_traitsILb0ELb0ELb1EEEE15_M_bucket_indexEm, symObjAddr: 0x2B6A, symBinAddr: 0x10000599C, symSize: 0x2E }
  - { offsetInCU: 0x2A9DA, offset: 0x2A9DA, size: 0x8, addend: 0x0, symName: __ZNKSt8__detail15_Hash_code_baseIiSt4pairIKiiENS_10_Select1stESt4hashIiENS_18_Mod_range_hashingENS_20_Default_ranged_hashELb0EE12_M_hash_codeERS2_, symObjAddr: 0x2B38, symBinAddr: 0x10000596A, symSize: 0x32 }
  - { offsetInCU: 0x2AA1D, offset: 0x2AA1D, size: 0x8, addend: 0x0, symName: __ZNSt10_HashtableIiSt4pairIKiiESaIS2_ENSt8__detail10_Select1stESt8equal_toIiESt4hashIiENS4_18_Mod_range_hashingENS4_20_Default_ranged_hashENS4_20_Prime_rehash_policyENS4_17_Hashtable_traitsILb0ELb0ELb1EEEE21_M_deallocate_bucketsEPPNS4_15_Hash_node_baseEm, symObjAddr: 0x2AF0, symBinAddr: 0x100005922, symSize: 0x48 }
  - { offsetInCU: 0x2AA74, offset: 0x2AA74, size: 0x8, addend: 0x0, symName: __ZNSt8__detail16_Hashtable_allocISaINS_10_Hash_nodeISt4pairIKiiELb0EEEEE19_M_deallocate_nodesEPS5_, symObjAddr: 0x2AA8, symBinAddr: 0x1000058DA, symSize: 0x48 }
  - { offsetInCU: 0x2AA7C, offset: 0x2AA7C, size: 0x8, addend: 0x0, symName: __ZNSt10_HashtableIiSt4pairIKiiESaIS2_ENSt8__detail10_Select1stESt8equal_toIiESt4hashIiENS4_18_Mod_range_hashingENS4_20_Default_ranged_hashENS4_20_Prime_rehash_policyENS4_17_Hashtable_traitsILb0ELb0ELb1EEEE21_M_deallocate_bucketsEPPNS4_15_Hash_node_baseEm, symObjAddr: 0x2AF0, symBinAddr: 0x100005922, symSize: 0x48 }
  - { offsetInCU: 0x2AADF, offset: 0x2AADF, size: 0x8, addend: 0x0, symName: __ZNKSt10_HashtableIiSt4pairIKiiESaIS2_ENSt8__detail10_Select1stESt8equal_toIiESt4hashIiENS4_18_Mod_range_hashingENS4_20_Default_ranged_hashENS4_20_Prime_rehash_policyENS4_17_Hashtable_traitsILb0ELb0ELb1EEEE8_M_beginEv, symObjAddr: 0x2A96, symBinAddr: 0x1000058C8, symSize: 0x12 }
  - { offsetInCU: 0x2AAE7, offset: 0x2AAE7, size: 0x8, addend: 0x0, symName: __ZNSt8__detail16_Hashtable_allocISaINS_10_Hash_nodeISt4pairIKiiELb0EEEEE19_M_deallocate_nodesEPS5_, symObjAddr: 0x2AA8, symBinAddr: 0x1000058DA, symSize: 0x48 }
  - { offsetInCU: 0x2AB27, offset: 0x2AB27, size: 0x8, addend: 0x0, symName: __ZN9__gnu_cxx17__normal_iteratorIPiSt6vectorIiSaIiEEEppEv, symObjAddr: 0x2A76, symBinAddr: 0x1000058A8, symSize: 0x20 }
  - { offsetInCU: 0x2AB2F, offset: 0x2AB2F, size: 0x8, addend: 0x0, symName: __ZNKSt10_HashtableIiSt4pairIKiiESaIS2_ENSt8__detail10_Select1stESt8equal_toIiESt4hashIiENS4_18_Mod_range_hashingENS4_20_Default_ranged_hashENS4_20_Prime_rehash_policyENS4_17_Hashtable_traitsILb0ELb0ELb1EEEE8_M_beginEv, symObjAddr: 0x2A96, symBinAddr: 0x1000058C8, symSize: 0x12 }
  - { offsetInCU: 0x2AC1D, offset: 0x2AC1D, size: 0x8, addend: 0x0, symName: __ZSt9iter_swapIN9__gnu_cxx17__normal_iteratorIPiSt6vectorIiSaIiEEEES6_EvT_T0_, symObjAddr: 0x2A37, symBinAddr: 0x100005869, symSize: 0x3F }
  - { offsetInCU: 0x2AC2C, offset: 0x2AC2C, size: 0x8, addend: 0x0, symName: __ZN9__gnu_cxxltIPiSt6vectorIiSaIiEEEEbRKNS_17__normal_iteratorIT_T0_EESA_, symObjAddr: 0x29FC, symBinAddr: 0x10000582E, symSize: 0x3B }
  - { offsetInCU: 0x2AC34, offset: 0x2AC34, size: 0x8, addend: 0x0, symName: __ZSt9iter_swapIN9__gnu_cxx17__normal_iteratorIPiSt6vectorIiSaIiEEEES6_EvT_T0_, symObjAddr: 0x2A37, symBinAddr: 0x100005869, symSize: 0x3F }
  - { offsetInCU: 0x2AC30, offset: 0x2AC30, size: 0x8, addend: 0x0, symName: __ZN9__gnu_cxx17__normal_iteratorIPiSt6vectorIiSaIiEEEmmEv, symObjAddr: 0x29DC, symBinAddr: 0x10000580E, symSize: 0x20 }
  - { offsetInCU: 0x2AC38, offset: 0x2AC38, size: 0x8, addend: 0x0, symName: __ZN9__gnu_cxxltIPiSt6vectorIiSaIiEEEEbRKNS_17__normal_iteratorIT_T0_EESA_, symObjAddr: 0x29FC, symBinAddr: 0x10000582E, symSize: 0x3B }
  - { offsetInCU: 0x2ACD2, offset: 0x2ACD2, size: 0x8, addend: 0x0, symName: __ZN9__gnu_cxxeqIPiSt6vectorIiSaIiEEEEbRKNS_17__normal_iteratorIT_T0_EESA_, symObjAddr: 0x29A1, symBinAddr: 0x1000057D3, symSize: 0x3B }
  - { offsetInCU: 0x2ACDA, offset: 0x2ACDA, size: 0x8, addend: 0x0, symName: __ZN9__gnu_cxx17__normal_iteratorIPiSt6vectorIiSaIiEEEmmEv, symObjAddr: 0x29DC, symBinAddr: 0x10000580E, symSize: 0x20 }
  - { offsetInCU: 0x2ACCC, offset: 0x2ACCC, size: 0x8, addend: 0x0, symName: __ZNSt6vectorIiSaIiEE17_M_realloc_insertIJiEEEvN9__gnu_cxx17__normal_iteratorIPiS1_EEDpOT_, symObjAddr: 0x278C, symBinAddr: 0x1000055BE, symSize: 0x215 }
  - { offsetInCU: 0x2ACD4, offset: 0x2ACD4, size: 0x8, addend: 0x0, symName: __ZN9__gnu_cxxeqIPiSt6vectorIiSaIiEEEEbRKNS_17__normal_iteratorIT_T0_EESA_, symObjAddr: 0x29A1, symBinAddr: 0x1000057D3, symSize: 0x3B }
  - { offsetInCU: 0x2AF50, offset: 0x2AF50, size: 0x8, addend: 0x0, symName: __ZSt18uninitialized_copyIN9__gnu_cxx17__normal_iteratorIPKiSt6vectorIiSaIiEEEEPiET0_T_SA_S9_, symObjAddr: 0x2757, symBinAddr: 0x100005589, symSize: 0x35 }
  - { offsetInCU: 0x2AF58, offset: 0x2AF58, size: 0x8, addend: 0x0, symName: __ZNSt6vectorIiSaIiEE17_M_realloc_insertIJiEEEvN9__gnu_cxx17__normal_iteratorIPiS1_EEDpOT_, symObjAddr: 0x278C, symBinAddr: 0x1000055BE, symSize: 0x215 }
  - { offsetInCU: 0x2AFA7, offset: 0x2AFA7, size: 0x8, addend: 0x0, symName: __ZN9__gnu_cxx17__normal_iteratorIPKiSt6vectorIiSaIiEEEC1ERKS2_, symObjAddr: 0x273A, symBinAddr: 0x10000556C, symSize: 0x1D }
  - { offsetInCU: 0x2AFAF, offset: 0x2AFAF, size: 0x8, addend: 0x0, symName: __ZSt18uninitialized_copyIN9__gnu_cxx17__normal_iteratorIPKiSt6vectorIiSaIiEEEEPiET0_T_SA_S9_, symObjAddr: 0x2757, symBinAddr: 0x100005589, symSize: 0x35 }
  - { offsetInCU: 0x2AFA5, offset: 0x2AFA5, size: 0x8, addend: 0x0, symName: __ZNSt12_Vector_baseIiSaIiEE17_M_create_storageEm, symObjAddr: 0x26E4, symBinAddr: 0x100005516, symSize: 0x56 }
  - { offsetInCU: 0x2AFAD, offset: 0x2AFAD, size: 0x8, addend: 0x0, symName: __ZN9__gnu_cxx17__normal_iteratorIPKiSt6vectorIiSaIiEEEC1ERKS2_, symObjAddr: 0x273A, symBinAddr: 0x10000556C, symSize: 0x1D }
  - { offsetInCU: 0x2B044, offset: 0x2B044, size: 0x8, addend: 0x0, symName: __ZNSt12_Vector_baseIiSaIiEE12_Vector_implC1ERKS0_, symObjAddr: 0x26A2, symBinAddr: 0x1000054D4, symSize: 0x42 }
  - { offsetInCU: 0x2B0F8, offset: 0x2B0F8, size: 0x8, addend: 0x0, symName: __ZNK9__gnu_cxx17__normal_iteratorIPiSt6vectorIiSaIiEEE4baseEv, symObjAddr: 0x2694, symBinAddr: 0x1000054C6, symSize: 0xE }
  - { offsetInCU: 0x2B100, offset: 0x2B100, size: 0x8, addend: 0x0, symName: __ZNSt12_Vector_baseIiSaIiEE12_Vector_implC1ERKS0_, symObjAddr: 0x26A2, symBinAddr: 0x1000054D4, symSize: 0x42 }
  - { offsetInCU: 0x2B127, offset: 0x2B127, size: 0x8, addend: 0x0, symName: __ZNSt6vectorIiSaIiEE11_S_relocateEPiS2_S2_RS0_, symObjAddr: 0x2661, symBinAddr: 0x100005493, symSize: 0x33 }
  - { offsetInCU: 0x2B195, offset: 0x2B195, size: 0x8, addend: 0x0, symName: __ZNSt12_Vector_baseIiSaIiEE11_M_allocateEm, symObjAddr: 0x2618, symBinAddr: 0x10000544A, symSize: 0x49 }
  - { offsetInCU: 0x2B19D, offset: 0x2B19D, size: 0x8, addend: 0x0, symName: __ZNSt6vectorIiSaIiEE11_S_relocateEPiS2_S2_RS0_, symObjAddr: 0x2661, symBinAddr: 0x100005493, symSize: 0x33 }
  - { offsetInCU: 0x2B20D, offset: 0x2B20D, size: 0x8, addend: 0x0, symName: __ZNKSt6vectorIiSaIiEE12_M_check_lenEmPKc, symObjAddr: 0x2550, symBinAddr: 0x100005382, symSize: 0xC8 }
  - { offsetInCU: 0x2B215, offset: 0x2B215, size: 0x8, addend: 0x0, symName: __ZNSt12_Vector_baseIiSaIiEE11_M_allocateEm, symObjAddr: 0x2618, symBinAddr: 0x10000544A, symSize: 0x49 }
  - { offsetInCU: 0x2B31D, offset: 0x2B31D, size: 0x8, addend: 0x0, symName: __ZSt7forwardIRKiEOT_RNSt16remove_referenceIS2_E4typeE, symObjAddr: 0x2541, symBinAddr: 0x100005373, symSize: 0xF }
  - { offsetInCU: 0x2B34B, offset: 0x2B34B, size: 0x8, addend: 0x0, symName: __ZSt8_DestroyIPiEvT_S1_, symObjAddr: 0x251B, symBinAddr: 0x10000534D, symSize: 0x26 }
  - { offsetInCU: 0x2B353, offset: 0x2B353, size: 0x8, addend: 0x0, symName: __ZSt7forwardIRKiEOT_RNSt16remove_referenceIS2_E4typeE, symObjAddr: 0x2541, symBinAddr: 0x100005373, symSize: 0xF }
  - { offsetInCU: 0x2B4BE, offset: 0x2B4BE, size: 0x8, addend: 0x0, symName: __ZSt22__final_insertion_sortIN9__gnu_cxx17__normal_iteratorIPiSt6vectorIiSaIiEEEENS0_5__ops15_Iter_less_iterEEvT_S9_T0_, symObjAddr: 0x248F, symBinAddr: 0x1000052C1, symSize: 0x8C }
  - { offsetInCU: 0x2B4C6, offset: 0x2B4C6, size: 0x8, addend: 0x0, symName: __ZSt8_DestroyIPiEvT_S1_, symObjAddr: 0x251B, symBinAddr: 0x10000534D, symSize: 0x26 }
  - { offsetInCU: 0x2B53A, offset: 0x2B53A, size: 0x8, addend: 0x0, symName: __ZSt16__introsort_loopIN9__gnu_cxx17__normal_iteratorIPiSt6vectorIiSaIiEEEElNS0_5__ops15_Iter_less_iterEEvT_S9_T0_T1_, symObjAddr: 0x23FE, symBinAddr: 0x100005230, symSize: 0x91 }
  - { offsetInCU: 0x2B542, offset: 0x2B542, size: 0x8, addend: 0x0, symName: __ZSt22__final_insertion_sortIN9__gnu_cxx17__normal_iteratorIPiSt6vectorIiSaIiEEEENS0_5__ops15_Iter_less_iterEEvT_S9_T0_, symObjAddr: 0x248F, symBinAddr: 0x1000052C1, symSize: 0x8C }
  - { offsetInCU: 0x2B537, offset: 0x2B537, size: 0x8, addend: 0x0, symName: __ZSt4__lgIlET_S0_, symObjAddr: 0x23DF, symBinAddr: 0x100005211, symSize: 0x1F }
  - { offsetInCU: 0x2B53F, offset: 0x2B53F, size: 0x8, addend: 0x0, symName: __ZSt16__introsort_loopIN9__gnu_cxx17__normal_iteratorIPiSt6vectorIiSaIiEEEElNS0_5__ops15_Iter_less_iterEEvT_S9_T0_T1_, symObjAddr: 0x23FE, symBinAddr: 0x100005230, symSize: 0x91 }
  - { offsetInCU: 0x2B5E2, offset: 0x2B5E2, size: 0x8, addend: 0x0, symName: __ZN9__gnu_cxxmiIPiSt6vectorIiSaIiEEEENS_17__normal_iteratorIT_T0_E15difference_typeERKS8_SB_, symObjAddr: 0x239D, symBinAddr: 0x1000051CF, symSize: 0x42 }
  - { offsetInCU: 0x2B5EA, offset: 0x2B5EA, size: 0x8, addend: 0x0, symName: __ZSt4__lgIlET_S0_, symObjAddr: 0x23DF, symBinAddr: 0x100005211, symSize: 0x1F }
  - { offsetInCU: 0x2B63D, offset: 0x2B63D, size: 0x8, addend: 0x0, symName: __ZN9__gnu_cxxneIPiSt6vectorIiSaIiEEEEbRKNS_17__normal_iteratorIT_T0_EESA_, symObjAddr: 0x2362, symBinAddr: 0x100005194, symSize: 0x3B }
  - { offsetInCU: 0x2B645, offset: 0x2B645, size: 0x8, addend: 0x0, symName: __ZN9__gnu_cxxmiIPiSt6vectorIiSaIiEEEENS_17__normal_iteratorIT_T0_E15difference_typeERKS8_SB_, symObjAddr: 0x239D, symBinAddr: 0x1000051CF, symSize: 0x42 }
  - { offsetInCU: 0x2B673, offset: 0x2B673, size: 0x8, addend: 0x0, symName: __ZSt11__bit_widthImEiT_, symObjAddr: 0x2338, symBinAddr: 0x10000516A, symSize: 0x2A }
  - { offsetInCU: 0x2B67B, offset: 0x2B67B, size: 0x8, addend: 0x0, symName: __ZN9__gnu_cxxneIPiSt6vectorIiSaIiEEEEbRKNS_17__normal_iteratorIT_T0_EESA_, symObjAddr: 0x2362, symBinAddr: 0x100005194, symSize: 0x3B }
  - { offsetInCU: 0x2B698, offset: 0x2B698, size: 0x8, addend: 0x0, symName: __ZNSt8__detail21_Hash_node_value_baseISt4pairIKiiEE4_M_vEv, symObjAddr: 0x231E, symBinAddr: 0x100005150, symSize: 0x1A }
  - { offsetInCU: 0x2B6A0, offset: 0x2B6A0, size: 0x8, addend: 0x0, symName: __ZSt11__bit_widthImEiT_, symObjAddr: 0x2338, symBinAddr: 0x10000516A, symSize: 0x2A }
  - { offsetInCU: 0x2B6C7, offset: 0x2B6C7, size: 0x8, addend: 0x0, symName: __ZNSt8__detail19_Node_iterator_baseISt4pairIKiiELb0EE7_M_incrEv, symObjAddr: 0x22F8, symBinAddr: 0x10000512A, symSize: 0x26 }
  - { offsetInCU: 0x2B6F6, offset: 0x2B6F6, size: 0x8, addend: 0x0, symName: __ZNSt10_HashtableIiSt4pairIKiiESaIS2_ENSt8__detail10_Select1stESt8equal_toIiESt4hashIiENS4_18_Mod_range_hashingENS4_20_Default_ranged_hashENS4_20_Prime_rehash_policyENS4_17_Hashtable_traitsILb0ELb0ELb1EEEE3endEv, symObjAddr: 0x22D4, symBinAddr: 0x100005106, symSize: 0x24 }
  - { offsetInCU: 0x2B725, offset: 0x2B725, size: 0x8, addend: 0x0, symName: __ZNSt10_HashtableIiSt4pairIKiiESaIS2_ENSt8__detail10_Select1stESt8equal_toIiESt4hashIiENS4_18_Mod_range_hashingENS4_20_Default_ranged_hashENS4_20_Prime_rehash_policyENS4_17_Hashtable_traitsILb0ELb0ELb1EEEE5beginEv, symObjAddr: 0x22A4, symBinAddr: 0x1000050D6, symSize: 0x30 }
  - { offsetInCU: 0x2B72D, offset: 0x2B72D, size: 0x8, addend: 0x0, symName: __ZNSt10_HashtableIiSt4pairIKiiESaIS2_ENSt8__detail10_Select1stESt8equal_toIiESt4hashIiENS4_18_Mod_range_hashingENS4_20_Default_ranged_hashENS4_20_Prime_rehash_policyENS4_17_Hashtable_traitsILb0ELb0ELb1EEEE3endEv, symObjAddr: 0x22D4, symBinAddr: 0x100005106, symSize: 0x24 }
  - { offsetInCU: 0x2B754, offset: 0x2B754, size: 0x8, addend: 0x0, symName: __ZNSt8__detail9_Map_baseIiSt4pairIKiiESaIS3_ENS_10_Select1stESt8equal_toIiESt4hashIiENS_18_Mod_range_hashingENS_20_Default_ranged_hashENS_20_Prime_rehash_policyENS_17_Hashtable_traitsILb0ELb0ELb1EEELb1EEixERS2_, symObjAddr: 0x217A, symBinAddr: 0x100004FAC, symSize: 0x12A }
  - { offsetInCU: 0x2B836, offset: 0x2B836, size: 0x8, addend: 0x0, symName: __ZNSt10_HashtableIiSt4pairIKiiESaIS2_ENSt8__detail10_Select1stESt8equal_toIiESt4hashIiENS4_18_Mod_range_hashingENS4_20_Default_ranged_hashENS4_20_Prime_rehash_policyENS4_17_Hashtable_traitsILb0ELb0ELb1EEEE21_M_deallocate_bucketsEv, symObjAddr: 0x214C, symBinAddr: 0x100004F7E, symSize: 0x2E }
  - { offsetInCU: 0x2B865, offset: 0x2B865, size: 0x8, addend: 0x0, symName: __ZNSt10_HashtableIiSt4pairIKiiESaIS2_ENSt8__detail10_Select1stESt8equal_toIiESt4hashIiENS4_18_Mod_range_hashingENS4_20_Default_ranged_hashENS4_20_Prime_rehash_policyENS4_17_Hashtable_traitsILb0ELb0ELb1EEEE5clearEv, symObjAddr: 0x20E2, symBinAddr: 0x100004F14, symSize: 0x6A }
  - { offsetInCU: 0x2B903, offset: 0x2B903, size: 0x8, addend: 0x0, symName: __ZNSt15__new_allocatorINSt8__detail10_Hash_nodeISt4pairIKiiELb0EEEED2Ev, symObjAddr: 0x20D6, symBinAddr: 0x100004F08, symSize: 0xC }
  - { offsetInCU: 0x2B904, offset: 0x2B904, size: 0x8, addend: 0x0, symName: __ZNK9__gnu_cxx17__normal_iteratorIPiSt6vectorIiSaIiEEEdeEv, symObjAddr: 0x20C4, symBinAddr: 0x100004EF6, symSize: 0x12 }
  - { offsetInCU: 0x2B933, offset: 0x2B933, size: 0x8, addend: 0x0, symName: __ZNK9__gnu_cxx17__normal_iteratorIPiSt6vectorIiSaIiEEEmiEl, symObjAddr: 0x2082, symBinAddr: 0x100004EB4, symSize: 0x42 }
  - { offsetInCU: 0x2B93B, offset: 0x2B93B, size: 0x8, addend: 0x0, symName: __ZNK9__gnu_cxx17__normal_iteratorIPiSt6vectorIiSaIiEEEdeEv, symObjAddr: 0x20C4, symBinAddr: 0x100004EF6, symSize: 0x12 }
  - { offsetInCU: 0x2BA22, offset: 0x2BA22, size: 0x8, addend: 0x0, symName: __ZSt9__reverseIN9__gnu_cxx17__normal_iteratorIPiSt6vectorIiSaIiEEEEEvT_S7_St26random_access_iterator_tag, symObjAddr: 0x2006, symBinAddr: 0x100004E38, symSize: 0x7C }
  - { offsetInCU: 0x2BA2A, offset: 0x2BA2A, size: 0x8, addend: 0x0, symName: __ZNK9__gnu_cxx17__normal_iteratorIPiSt6vectorIiSaIiEEEmiEl, symObjAddr: 0x2082, symBinAddr: 0x100004EB4, symSize: 0x42 }
  - { offsetInCU: 0x2BA09, offset: 0x2BA09, size: 0x8, addend: 0x0, symName: __ZNSt6vectorIiSaIiEE12emplace_backIJiEEERiDpOT_, symObjAddr: 0x1F1A, symBinAddr: 0x100004D4C, symSize: 0xEC }
  - { offsetInCU: 0x2BA11, offset: 0x2BA11, size: 0x8, addend: 0x0, symName: __ZSt9__reverseIN9__gnu_cxx17__normal_iteratorIPiSt6vectorIiSaIiEEEEEvT_S7_St26random_access_iterator_tag, symObjAddr: 0x2006, symBinAddr: 0x100004E38, symSize: 0x7C }
  - { offsetInCU: 0x2BB22, offset: 0x2BB22, size: 0x8, addend: 0x0, symName: __ZSt4moveIRiEONSt16remove_referenceIT_E4typeEOS2_, symObjAddr: 0x1F0C, symBinAddr: 0x100004D3E, symSize: 0xE }
  - { offsetInCU: 0x2BB2A, offset: 0x2BB2A, size: 0x8, addend: 0x0, symName: __ZNSt6vectorIiSaIiEE12emplace_backIJiEEERiDpOT_, symObjAddr: 0x1F1A, symBinAddr: 0x100004D4C, symSize: 0xEC }
  - { offsetInCU: 0x2BC04, offset: 0x2BC04, size: 0x8, addend: 0x0, symName: __ZSt22__uninitialized_copy_aIN9__gnu_cxx17__normal_iteratorIPKiSt6vectorIiSaIiEEEEPiiET0_T_SA_S9_RSaIT1_E, symObjAddr: 0x1EDB, symBinAddr: 0x100004D0D, symSize: 0x31 }
  - { offsetInCU: 0x2BC0C, offset: 0x2BC0C, size: 0x8, addend: 0x0, symName: __ZSt4moveIRiEONSt16remove_referenceIT_E4typeEOS2_, symObjAddr: 0x1F0C, symBinAddr: 0x100004D3E, symSize: 0xE }
  - { offsetInCU: 0x2BBD0, offset: 0x2BBD0, size: 0x8, addend: 0x0, symName: __ZNKSt6vectorIiSaIiEE3endEv, symObjAddr: 0x1EB2, symBinAddr: 0x100004CE4, symSize: 0x29 }
  - { offsetInCU: 0x2BBD8, offset: 0x2BBD8, size: 0x8, addend: 0x0, symName: __ZSt22__uninitialized_copy_aIN9__gnu_cxx17__normal_iteratorIPKiSt6vectorIiSaIiEEEEPiiET0_T_SA_S9_RSaIT1_E, symObjAddr: 0x1EDB, symBinAddr: 0x100004D0D, symSize: 0x31 }
  - { offsetInCU: 0x2BBFF, offset: 0x2BBFF, size: 0x8, addend: 0x0, symName: __ZNKSt6vectorIiSaIiEE5beginEv, symObjAddr: 0x1E8C, symBinAddr: 0x100004CBE, symSize: 0x26 }
  - { offsetInCU: 0x2BC90, offset: 0x2BC90, size: 0x8, addend: 0x0, symName: __ZNSt12_Vector_baseIiSaIiEEC2EmRKS0_, symObjAddr: 0x1E2E, symBinAddr: 0x100004C60, symSize: 0x5E }
  - { offsetInCU: 0x2BCD1, offset: 0x2BCD1, size: 0x8, addend: 0x0, symName: __ZNKSt12_Vector_baseIiSaIiEE19_M_get_Tp_allocatorEv, symObjAddr: 0x1E20, symBinAddr: 0x100004C52, symSize: 0xE }
  - { offsetInCU: 0x2BCD9, offset: 0x2BCD9, size: 0x8, addend: 0x0, symName: __ZNSt12_Vector_baseIiSaIiEEC2EmRKS0_, symObjAddr: 0x1E2E, symBinAddr: 0x100004C60, symSize: 0x5E }
  - { offsetInCU: 0x2BD60, offset: 0x2BD60, size: 0x8, addend: 0x0, symName: __ZNSt12_Vector_baseIiSaIiEE17_Vector_impl_dataC2EOS2_, symObjAddr: 0x1DB8, symBinAddr: 0x100004BEA, symSize: 0x68 }
  - { offsetInCU: 0x2BD68, offset: 0x2BD68, size: 0x8, addend: 0x0, symName: __ZNKSt12_Vector_baseIiSaIiEE19_M_get_Tp_allocatorEv, symObjAddr: 0x1E20, symBinAddr: 0x100004C52, symSize: 0xE }
  - { offsetInCU: 0x2BE30, offset: 0x2BE30, size: 0x8, addend: 0x0, symName: __ZSt4moveIRNSt12_Vector_baseIiSaIiEE12_Vector_implEEONSt16remove_referenceIT_E4typeEOS6_, symObjAddr: 0x1DA9, symBinAddr: 0x100004BDB, symSize: 0xF }
  - { offsetInCU: 0x2BDF0, offset: 0x2BDF0, size: 0x8, addend: 0x0, symName: __ZNSt6vectorIiSaIiEE17_M_realloc_insertIJRKiEEEvN9__gnu_cxx17__normal_iteratorIPiS1_EEDpOT_, symObjAddr: 0x1B94, symBinAddr: 0x1000049C6, symSize: 0x215 }
  - { offsetInCU: 0x2BDF8, offset: 0x2BDF8, size: 0x8, addend: 0x0, symName: __ZSt4moveIRNSt12_Vector_baseIiSaIiEE12_Vector_implEEONSt16remove_referenceIT_E4typeEOS6_, symObjAddr: 0x1DA9, symBinAddr: 0x100004BDB, symSize: 0xF }
  - { offsetInCU: 0x2C015, offset: 0x2C015, size: 0x8, addend: 0x0, symName: __ZNSt12_Vector_baseIiSaIiEE19_M_get_Tp_allocatorEv, symObjAddr: 0x1B86, symBinAddr: 0x1000049B8, symSize: 0xE }
  - { offsetInCU: 0x2C01D, offset: 0x2C01D, size: 0x8, addend: 0x0, symName: __ZNSt6vectorIiSaIiEE17_M_realloc_insertIJRKiEEEvN9__gnu_cxx17__normal_iteratorIPiS1_EEDpOT_, symObjAddr: 0x1B94, symBinAddr: 0x1000049C6, symSize: 0x215 }
  - { offsetInCU: 0x2C044, offset: 0x2C044, size: 0x8, addend: 0x0, symName: __ZNSt12_Vector_baseIiSaIiEE13_M_deallocateEPim, symObjAddr: 0x1B38, symBinAddr: 0x10000496A, symSize: 0x4E }
  - { offsetInCU: 0x2C04C, offset: 0x2C04C, size: 0x8, addend: 0x0, symName: __ZNSt12_Vector_baseIiSaIiEE19_M_get_Tp_allocatorEv, symObjAddr: 0x1B86, symBinAddr: 0x1000049B8, symSize: 0xE }
  - { offsetInCU: 0x2C123, offset: 0x2C123, size: 0x8, addend: 0x0, symName: __ZNSt15__new_allocatorIiED2Ev, symObjAddr: 0x1B2C, symBinAddr: 0x10000495E, symSize: 0xC }
  - { offsetInCU: 0x2C181, offset: 0x2C181, size: 0x8, addend: 0x0, symName: __ZNSt12_Vector_baseIiSaIiEE17_Vector_impl_dataC2Ev, symObjAddr: 0x1AFE, symBinAddr: 0x100004930, symSize: 0x2E }
  - { offsetInCU: 0x2C189, offset: 0x2C189, size: 0x8, addend: 0x0, symName: __ZNSt15__new_allocatorIiED2Ev, symObjAddr: 0x1B2C, symBinAddr: 0x10000495E, symSize: 0xC }
  - { offsetInCU: 0x2C260, offset: 0x2C260, size: 0x8, addend: 0x0, symName: __ZSt6__sortIN9__gnu_cxx17__normal_iteratorIPiSt6vectorIiSaIiEEEENS0_5__ops15_Iter_less_iterEEvT_S9_T0_, symObjAddr: 0x1A8F, symBinAddr: 0x1000048C1, symSize: 0x6F }
  - { offsetInCU: 0x2C268, offset: 0x2C268, size: 0x8, addend: 0x0, symName: __ZNSt12_Vector_baseIiSaIiEE17_Vector_impl_dataC2Ev, symObjAddr: 0x1AFE, symBinAddr: 0x100004930, symSize: 0x2E }
  - { offsetInCU: 0x2C27A, offset: 0x2C27A, size: 0x8, addend: 0x0, symName: __ZN9__gnu_cxx17__normal_iteratorIPiSt6vectorIiSaIiEEEC1ERKS1_, symObjAddr: 0x1A72, symBinAddr: 0x1000048A4, symSize: 0x1D }
  - { offsetInCU: 0x2C282, offset: 0x2C282, size: 0x8, addend: 0x0, symName: __ZSt6__sortIN9__gnu_cxx17__normal_iteratorIPiSt6vectorIiSaIiEEEENS0_5__ops15_Iter_less_iterEEvT_S9_T0_, symObjAddr: 0x1A8F, symBinAddr: 0x1000048C1, symSize: 0x6F }
  - { offsetInCU: 0x2C2BE, offset: 0x2C2BE, size: 0x8, addend: 0x0, symName: __ZSt7forwardIiEOT_RNSt16remove_referenceIS0_E4typeE, symObjAddr: 0x1A63, symBinAddr: 0x100004895, symSize: 0xF }
  - { offsetInCU: 0x2C2F2, offset: 0x2C2F2, size: 0x8, addend: 0x0, symName: __ZSt3maxIiERKT_S2_S2_, symObjAddr: 0x1A3B, symBinAddr: 0x10000486D, symSize: 0x28 }
  - { offsetInCU: 0x2C2FA, offset: 0x2C2FA, size: 0x8, addend: 0x0, symName: __ZSt7forwardIiEOT_RNSt16remove_referenceIS0_E4typeE, symObjAddr: 0x1A63, symBinAddr: 0x100004895, symSize: 0xF }
  - { offsetInCU: 0x2C32E, offset: 0x2C32E, size: 0x8, addend: 0x0, symName: __ZNKSt8__detail14_Node_iteratorISt4pairIKiiELb0ELb0EEdeEv, symObjAddr: 0x1A1A, symBinAddr: 0x10000484C, symSize: 0x21 }
  - { offsetInCU: 0x2C336, offset: 0x2C336, size: 0x8, addend: 0x0, symName: __ZSt3maxIiERKT_S2_S2_, symObjAddr: 0x1A3B, symBinAddr: 0x10000486D, symSize: 0x28 }
  - { offsetInCU: 0x2C35D, offset: 0x2C35D, size: 0x8, addend: 0x0, symName: __ZNSt8__detail14_Node_iteratorISt4pairIKiiELb0ELb0EEppEv, symObjAddr: 0x19FC, symBinAddr: 0x10000482E, symSize: 0x1E }
  - { offsetInCU: 0x2C365, offset: 0x2C365, size: 0x8, addend: 0x0, symName: __ZNKSt8__detail14_Node_iteratorISt4pairIKiiELb0ELb0EEdeEv, symObjAddr: 0x1A1A, symBinAddr: 0x10000484C, symSize: 0x21 }
  - { offsetInCU: 0x2C3D8, offset: 0x2C3D8, size: 0x8, addend: 0x0, symName: __ZNSt8__detailneERKNS_19_Node_iterator_baseISt4pairIKiiELb0EEES6_, symObjAddr: 0x19DA, symBinAddr: 0x10000480C, symSize: 0x22 }
  - { offsetInCU: 0x2C3E0, offset: 0x2C3E0, size: 0x8, addend: 0x0, symName: __ZNSt8__detail14_Node_iteratorISt4pairIKiiELb0ELb0EEppEv, symObjAddr: 0x19FC, symBinAddr: 0x10000482E, symSize: 0x1E }
  - { offsetInCU: 0x2C3E9, offset: 0x2C3E9, size: 0x8, addend: 0x0, symName: __ZNSt13unordered_mapIiiSt4hashIiESt8equal_toIiESaISt4pairIKiiEEE3endEv, symObjAddr: 0x19C0, symBinAddr: 0x1000047F2, symSize: 0x1A }
  - { offsetInCU: 0x2C3F1, offset: 0x2C3F1, size: 0x8, addend: 0x0, symName: __ZNSt8__detailneERKNS_19_Node_iterator_baseISt4pairIKiiELb0EEES6_, symObjAddr: 0x19DA, symBinAddr: 0x10000480C, symSize: 0x22 }
  - { offsetInCU: 0x2C418, offset: 0x2C418, size: 0x8, addend: 0x0, symName: __ZNSt13unordered_mapIiiSt4hashIiESt8equal_toIiESaISt4pairIKiiEEE5beginEv, symObjAddr: 0x19A6, symBinAddr: 0x1000047D8, symSize: 0x1A }
  - { offsetInCU: 0x2C420, offset: 0x2C420, size: 0x8, addend: 0x0, symName: __ZNSt13unordered_mapIiiSt4hashIiESt8equal_toIiESaISt4pairIKiiEEE3endEv, symObjAddr: 0x19C0, symBinAddr: 0x1000047F2, symSize: 0x1A }
  - { offsetInCU: 0x2C447, offset: 0x2C447, size: 0x8, addend: 0x0, symName: __ZNSt13unordered_mapIiiSt4hashIiESt8equal_toIiESaISt4pairIKiiEEEixERS5_, symObjAddr: 0x1980, symBinAddr: 0x1000047B2, symSize: 0x26 }
  - { offsetInCU: 0x2C583, offset: 0x2C583, size: 0x8, addend: 0x0, symName: __ZNSt10_HashtableIiSt4pairIKiiESaIS2_ENSt8__detail10_Select1stESt8equal_toIiESt4hashIiENS4_18_Mod_range_hashingENS4_20_Default_ranged_hashENS4_20_Prime_rehash_policyENS4_17_Hashtable_traitsILb0ELb0ELb1EEEED1Ev, symObjAddr: 0x194C, symBinAddr: 0x10000477E, symSize: 0x34 }
  - { offsetInCU: 0x2C57B, offset: 0x2C57B, size: 0x8, addend: 0x0, symName: __ZNSt8__detail21_Hashtable_ebo_helperILi0ESaINS_10_Hash_nodeISt4pairIKiiELb0EEEELb1EEC2Ev, symObjAddr: 0x192E, symBinAddr: 0x100004760, symSize: 0x1E }
  - { offsetInCU: 0x2C5FC, offset: 0x2C5FC, size: 0x8, addend: 0x0, symName: __ZNSt8__detail21_Hashtable_ebo_helperILi0ESt8equal_toIiELb1EEC2Ev, symObjAddr: 0x1922, symBinAddr: 0x100004754, symSize: 0xC }
  - { offsetInCU: 0x2C641, offset: 0x2C641, size: 0x8, addend: 0x0, symName: __ZNSt8__detail21_Hashtable_ebo_helperILi1ESt4hashIiELb1EEC2Ev, symObjAddr: 0x1916, symBinAddr: 0x100004748, symSize: 0xC }
  - { offsetInCU: 0x2C633, offset: 0x2C633, size: 0x8, addend: 0x0, symName: __ZNSt6vectorIiSaIiEE4backEv, symObjAddr: 0x18D6, symBinAddr: 0x100004708, symSize: 0x40 }
  - { offsetInCU: 0x2C708, offset: 0x2C708, size: 0x8, addend: 0x0, symName: __ZSt4swapIiENSt9enable_ifIXsrSt6__and_IJSt6__not_ISt15__is_tuple_likeIT_EESt21is_move_constructibleIS4_ESt18is_move_assignableIS4_EEE5valueEvE4typeERS4_SE_, symObjAddr: 0x188A, symBinAddr: 0x1000046BC, symSize: 0x4C }
  - { offsetInCU: 0x2C710, offset: 0x2C710, size: 0x8, addend: 0x0, symName: __ZNSt6vectorIiSaIiEE4backEv, symObjAddr: 0x18D6, symBinAddr: 0x100004708, symSize: 0x40 }
  - { offsetInCU: 0x2C755, offset: 0x2C755, size: 0x8, addend: 0x0, symName: __ZSt7reverseIN9__gnu_cxx17__normal_iteratorIPiSt6vectorIiSaIiEEEEEvT_S7_, symObjAddr: 0x1863, symBinAddr: 0x100004695, symSize: 0x27 }
  - { offsetInCU: 0x2C75D, offset: 0x2C75D, size: 0x8, addend: 0x0, symName: __ZSt4swapIiENSt9enable_ifIXsrSt6__and_IJSt6__not_ISt15__is_tuple_likeIT_EESt21is_move_constructibleIS4_ESt18is_move_assignableIS4_EEE5valueEvE4typeERS4_SE_, symObjAddr: 0x188A, symBinAddr: 0x1000046BC, symSize: 0x4C }
  - { offsetInCU: 0x2C749, offset: 0x2C749, size: 0x8, addend: 0x0, symName: __ZNK9__gnu_cxx17__normal_iteratorIPiSt6vectorIiSaIiEEEplEl, symObjAddr: 0x1824, symBinAddr: 0x100004656, symSize: 0x3F }
  - { offsetInCU: 0x2C751, offset: 0x2C751, size: 0x8, addend: 0x0, symName: __ZSt7reverseIN9__gnu_cxx17__normal_iteratorIPiSt6vectorIiSaIiEEEEEvT_S7_, symObjAddr: 0x1863, symBinAddr: 0x100004695, symSize: 0x27 }
  - { offsetInCU: 0x2C78C, offset: 0x2C78C, size: 0x8, addend: 0x0, symName: __ZNSt6vectorIiSaIiEE9push_backEOi, symObjAddr: 0x17F2, symBinAddr: 0x100004624, symSize: 0x32 }
  - { offsetInCU: 0x2C817, offset: 0x2C817, size: 0x8, addend: 0x0, symName: __ZNSt6vectorIiSaIiEEC1ERKS1_, symObjAddr: 0x16E2, symBinAddr: 0x100004514, symSize: 0x110 }
  - { offsetInCU: 0x2C941, offset: 0x2C941, size: 0x8, addend: 0x0, symName: __ZNKSt6vectorIiSaIiEE4sizeEv, symObjAddr: 0x16BE, symBinAddr: 0x1000044F0, symSize: 0x24 }
  - { offsetInCU: 0x2C9CB, offset: 0x2C9CB, size: 0x8, addend: 0x0, symName: __ZNSt12_Vector_baseIiSaIiEE12_Vector_implC1EOS2_, symObjAddr: 0x1660, symBinAddr: 0x100004492, symSize: 0x5E }
  - { offsetInCU: 0x2CA43, offset: 0x2CA43, size: 0x8, addend: 0x0, symName: __ZNSt6vectorIiSaIiEE9push_backERKi, symObjAddr: 0x1598, symBinAddr: 0x1000043CA, symSize: 0xC8 }
  - { offsetInCU: 0x2CB0E, offset: 0x2CB0E, size: 0x8, addend: 0x0, symName: __ZNSt6vectorIiSaIiEEixEm, symObjAddr: 0x1578, symBinAddr: 0x1000043AA, symSize: 0x20 }
  - { offsetInCU: 0x2CB16, offset: 0x2CB16, size: 0x8, addend: 0x0, symName: __ZNSt6vectorIiSaIiEE9push_backERKi, symObjAddr: 0x1598, symBinAddr: 0x1000043CA, symSize: 0xC8 }
  - { offsetInCU: 0x2CB91, offset: 0x2CB91, size: 0x8, addend: 0x0, symName: __ZNSt6vectorIiSaIiEED1Ev, symObjAddr: 0x1522, symBinAddr: 0x100004354, symSize: 0x56 }
  - { offsetInCU: 0x2CB99, offset: 0x2CB99, size: 0x8, addend: 0x0, symName: __ZNSt6vectorIiSaIiEEixEm, symObjAddr: 0x1578, symBinAddr: 0x1000043AA, symSize: 0x20 }
  - { offsetInCU: 0x2CC31, offset: 0x2CC31, size: 0x8, addend: 0x0, symName: __ZNSt12_Vector_baseIiSaIiEED2Ev, symObjAddr: 0x14D4, symBinAddr: 0x100004306, symSize: 0x4E }
  - { offsetInCU: 0x2CCAF, offset: 0x2CCAF, size: 0x8, addend: 0x0, symName: __ZNSt12_Vector_baseIiSaIiEE12_Vector_implC1Ev, symObjAddr: 0x14A6, symBinAddr: 0x1000042D8, symSize: 0x2E }
  - { offsetInCU: 0x2CD85, offset: 0x2CD85, size: 0x8, addend: 0x0, symName: __ZSt4sortIN9__gnu_cxx17__normal_iteratorIPiSt6vectorIiSaIiEEEEEvT_S7_, symObjAddr: 0x147B, symBinAddr: 0x1000042AD, symSize: 0x2B }
  - { offsetInCU: 0x2CD8D, offset: 0x2CD8D, size: 0x8, addend: 0x0, symName: __ZNSt12_Vector_baseIiSaIiEE12_Vector_implC1Ev, symObjAddr: 0x14A6, symBinAddr: 0x1000042D8, symSize: 0x2E }
  - { offsetInCU: 0x2CD5A, offset: 0x2CD5A, size: 0x8, addend: 0x0, symName: __ZNSt6vectorIiSaIiEE3endEv, symObjAddr: 0x1452, symBinAddr: 0x100004284, symSize: 0x29 }
  - { offsetInCU: 0x2CD62, offset: 0x2CD62, size: 0x8, addend: 0x0, symName: __ZSt4sortIN9__gnu_cxx17__normal_iteratorIPiSt6vectorIiSaIiEEEEEvT_S7_, symObjAddr: 0x147B, symBinAddr: 0x1000042AD, symSize: 0x2B }
  - { offsetInCU: 0x2CD89, offset: 0x2CD89, size: 0x8, addend: 0x0, symName: __ZNSt6vectorIiSaIiEE5beginEv, symObjAddr: 0x142C, symBinAddr: 0x10000425E, symSize: 0x26 }
  - { offsetInCU: 0x2CDEA, offset: 0x2CDEA, size: 0x8, addend: 0x0, symName: __ZSt3maxImERKT_S2_S2_, symObjAddr: 0x1401, symBinAddr: 0x100004233, symSize: 0x2B }
  - { offsetInCU: 0x2CDF2, offset: 0x2CDF2, size: 0x8, addend: 0x0, symName: __ZNSt6vectorIiSaIiEE5beginEv, symObjAddr: 0x142C, symBinAddr: 0x10000425E, symSize: 0x26 }
  - { offsetInCU: 0x2CE23, offset: 0x2CE23, size: 0x8, addend: 0x0, symName: _main, symObjAddr: 0x12ED, symBinAddr: 0x10000411F, symSize: 0x114 }
  - { offsetInCU: 0x2CE2B, offset: 0x2CE2B, size: 0x8, addend: 0x0, symName: __ZSt3maxImERKT_S2_S2_, symObjAddr: 0x1401, symBinAddr: 0x100004233, symSize: 0x2B }
  - { offsetInCU: 0x2CEA7, offset: 0x2CEA7, size: 0x8, addend: 0x0, symName: __Z9maxLengthSt6vectorIiSaIiEEx, symObjAddr: 0x1223, symBinAddr: 0x100004055, symSize: 0xCA }
  - { offsetInCU: 0x2CEAF, offset: 0x2CEAF, size: 0x8, addend: 0x0, symName: _main, symObjAddr: 0x12ED, symBinAddr: 0x10000411F, symSize: 0x114 }
  - { offsetInCU: 0x2CF56, offset: 0x2CF56, size: 0x8, addend: 0x0, symName: __Z16getSingleElementRSt6vectorIiSaIiEE, symObjAddr: 0x1163, symBinAddr: 0x100003F95, symSize: 0xC0 }
  - { offsetInCU: 0x2CF5E, offset: 0x2CF5E, size: 0x8, addend: 0x0, symName: __Z9maxLengthSt6vectorIiSaIiEEx, symObjAddr: 0x1223, symBinAddr: 0x100004055, symSize: 0xCA }
  - { offsetInCU: 0x2CFCF, offset: 0x2CFCF, size: 0x8, addend: 0x0, symName: __Z17getSingleElement0RSt6vectorIiSaIiEE, symObjAddr: 0x1035, symBinAddr: 0x100003E67, symSize: 0x12E }
  - { offsetInCU: 0x2CFD7, offset: 0x2CFD7, size: 0x8, addend: 0x0, symName: __Z16getSingleElementRSt6vectorIiSaIiEE, symObjAddr: 0x1163, symBinAddr: 0x100003F95, symSize: 0xC0 }
  - { offsetInCU: 0x2D0D9, offset: 0x2D0D9, size: 0x8, addend: 0x0, symName: __ZNSt13unordered_mapIiiSt4hashIiESt8equal_toIiESaISt4pairIKiiEEED1Ev, symObjAddr: 0x101A, symBinAddr: 0x100003E4C, symSize: 0x1B }
  - { offsetInCU: 0x2D0E1, offset: 0x2D0E1, size: 0x8, addend: 0x0, symName: __Z17getSingleElement0RSt6vectorIiSaIiEE, symObjAddr: 0x1035, symBinAddr: 0x100003E67, symSize: 0x12E }
  - { offsetInCU: 0x2D122, offset: 0x2D122, size: 0x8, addend: 0x0, symName: __ZNSt13unordered_mapIiiSt4hashIiESt8equal_toIiESaISt4pairIKiiEEEC1Ev, symObjAddr: 0xFFE, symBinAddr: 0x100003E30, symSize: 0x1C }
  - { offsetInCU: 0x2D1F8, offset: 0x2D1F8, size: 0x8, addend: 0x0, symName: __ZNSt10_HashtableIiSt4pairIKiiESaIS2_ENSt8__detail10_Select1stESt8equal_toIiESt4hashIiENS4_18_Mod_range_hashingENS4_20_Default_ranged_hashENS4_20_Prime_rehash_policyENS4_17_Hashtable_traitsILb0ELb0ELb1EEEEC1Ev, symObjAddr: 0xF7A, symBinAddr: 0x100003DAC, symSize: 0x84 }
  - { offsetInCU: 0x2D200, offset: 0x2D200, size: 0x8, addend: 0x0, symName: __ZNSt13unordered_mapIiiSt4hashIiESt8equal_toIiESaISt4pairIKiiEEEC1Ev, symObjAddr: 0xFFE, symBinAddr: 0x100003E30, symSize: 0x1C }
  - { offsetInCU: 0x2D1CF, offset: 0x2D1CF, size: 0x8, addend: 0x0, symName: __ZNSt8__detail16_Hashtable_allocISaINS_10_Hash_nodeISt4pairIKiiELb0EEEEED2Ev, symObjAddr: 0xF5E, symBinAddr: 0x100003D90, symSize: 0x1C }
  - { offsetInCU: 0x2D218, offset: 0x2D218, size: 0x8, addend: 0x0, symName: __ZNSt8__detail16_Hashtable_allocISaINS_10_Hash_nodeISt4pairIKiiELb0EEEEEC2Ev, symObjAddr: 0xF42, symBinAddr: 0x100003D74, symSize: 0x1C }
  - { offsetInCU: 0x2D281, offset: 0x2D281, size: 0x8, addend: 0x0, symName: __ZNSt8__detail21_Hashtable_ebo_helperILi0ESaINS_10_Hash_nodeISt4pairIKiiELb0EEEELb1EED2Ev, symObjAddr: 0xF1E, symBinAddr: 0x100003D50, symSize: 0x24 }
  - { offsetInCU: 0x2D289, offset: 0x2D289, size: 0x8, addend: 0x0, symName: __ZNSt8__detail16_Hashtable_allocISaINS_10_Hash_nodeISt4pairIKiiELb0EEEEEC2Ev, symObjAddr: 0xF42, symBinAddr: 0x100003D74, symSize: 0x1C }
  - { offsetInCU: 0x2D34A, offset: 0x2D34A, size: 0x8, addend: 0x0, symName: __ZNSt8__detail15_Hashtable_baseIiSt4pairIKiiENS_10_Select1stESt8equal_toIiESt4hashIiENS_18_Mod_range_hashingENS_20_Default_ranged_hashENS_17_Hashtable_traitsILb0ELb0ELb1EEEEC2Ev, symObjAddr: 0xEF6, symBinAddr: 0x100003D28, symSize: 0x28 }
  - { offsetInCU: 0x2D364, offset: 0x2D364, size: 0x8, addend: 0x0, symName: __ZNSt8__detail15_Hash_code_baseIiSt4pairIKiiENS_10_Select1stESt4hashIiENS_18_Mod_range_hashingENS_20_Default_ranged_hashELb0EEC2Ev, symObjAddr: 0xEDA, symBinAddr: 0x100003D0C, symSize: 0x1C }
  - { offsetInCU: 0x2D35C, offset: 0x2D35C, size: 0x8, addend: 0x0, symName: __Z21findArrayIntersectionRSt6vectorIiSaIiEEiS2_i, symObjAddr: 0xDBF, symBinAddr: 0x100003BF1, symSize: 0x11B }
  - { offsetInCU: 0x2D3F9, offset: 0x2D3F9, size: 0x8, addend: 0x0, symName: __Z11sortedArraySt6vectorIiSaIiEES1_, symObjAddr: 0xB18, symBinAddr: 0x10000394A, symSize: 0x2A7 }
  - { offsetInCU: 0x2D401, offset: 0x2D401, size: 0x8, addend: 0x0, symName: __Z21findArrayIntersectionRSt6vectorIiSaIiEEiS2_i, symObjAddr: 0xDBF, symBinAddr: 0x100003BF1, symSize: 0x11B }
  - { offsetInCU: 0x2D4A7, offset: 0x2D4A7, size: 0x8, addend: 0x0, symName: __Z11moveZeroes1RSt6vectorIiSaIiEE, symObjAddr: 0xA59, symBinAddr: 0x10000388B, symSize: 0xBF }
  - { offsetInCU: 0x2D4AF, offset: 0x2D4AF, size: 0x8, addend: 0x0, symName: __Z11sortedArraySt6vectorIiSaIiEES1_, symObjAddr: 0xB18, symBinAddr: 0x10000394A, symSize: 0x2A7 }
  - { offsetInCU: 0x2D54D, offset: 0x2D54D, size: 0x8, addend: 0x0, symName: __Z10moveZeroesRSt6vectorIiSaIiEE, symObjAddr: 0x92C, symBinAddr: 0x10000375E, symSize: 0x12D }
  - { offsetInCU: 0x2D555, offset: 0x2D555, size: 0x8, addend: 0x0, symName: __Z11moveZeroes1RSt6vectorIiSaIiEE, symObjAddr: 0xA59, symBinAddr: 0x10000388B, symSize: 0xBF }
  - { offsetInCU: 0x2D614, offset: 0x2D614, size: 0x8, addend: 0x0, symName: __Z6rotateRSt6vectorIiSaIiEEi, symObjAddr: 0x84D, symBinAddr: 0x10000367F, symSize: 0xDF }
  - { offsetInCU: 0x2D61C, offset: 0x2D61C, size: 0x8, addend: 0x0, symName: __Z10moveZeroesRSt6vectorIiSaIiEE, symObjAddr: 0x92C, symBinAddr: 0x10000375E, symSize: 0x12D }
  - { offsetInCU: 0x2D67A, offset: 0x2D67A, size: 0x8, addend: 0x0, symName: __Z11rotateArrayRSt6vectorIiSaIiEEi, symObjAddr: 0x773, symBinAddr: 0x1000035A5, symSize: 0xDA }
  - { offsetInCU: 0x2D682, offset: 0x2D682, size: 0x8, addend: 0x0, symName: __Z6rotateRSt6vectorIiSaIiEEi, symObjAddr: 0x84D, symBinAddr: 0x10000367F, symSize: 0xDF }
  - { offsetInCU: 0x2D6CB, offset: 0x2D6CB, size: 0x8, addend: 0x0, symName: __Z11rotateArraySt6vectorIiSaIiEEi, symObjAddr: 0x61C, symBinAddr: 0x10000344E, symSize: 0x157 }
  - { offsetInCU: 0x2D6D3, offset: 0x2D6D3, size: 0x8, addend: 0x0, symName: __Z11rotateArrayRSt6vectorIiSaIiEEi, symObjAddr: 0x773, symBinAddr: 0x1000035A5, symSize: 0xDA }
  - { offsetInCU: 0x2D7F5, offset: 0x2D7F5, size: 0x8, addend: 0x0, symName: __Z16removeDuplicatesRSt6vectorIiSaIiEE, symObjAddr: 0x56E, symBinAddr: 0x1000033A0, symSize: 0xAE }
  - { offsetInCU: 0x2D7FD, offset: 0x2D7FD, size: 0x8, addend: 0x0, symName: __Z11rotateArraySt6vectorIiSaIiEEi, symObjAddr: 0x61C, symBinAddr: 0x10000344E, symSize: 0x157 }
  - { offsetInCU: 0x2D878, offset: 0x2D878, size: 0x8, addend: 0x0, symName: __Z22getSecondOrderElementsiSt6vectorIiSaIiEE, symObjAddr: 0x484, symBinAddr: 0x1000032B6, symSize: 0xEA }
  - { offsetInCU: 0x2D880, offset: 0x2D880, size: 0x8, addend: 0x0, symName: __Z16removeDuplicatesRSt6vectorIiSaIiEE, symObjAddr: 0x56E, symBinAddr: 0x1000033A0, symSize: 0xAE }
  - { offsetInCU: 0x2D8C0, offset: 0x2D8C0, size: 0x8, addend: 0x0, symName: __Z9sSmallestSt6vectorIiSaIiEE, symObjAddr: 0x381, symBinAddr: 0x1000031B3, symSize: 0x103 }
  - { offsetInCU: 0x2D8C8, offset: 0x2D8C8, size: 0x8, addend: 0x0, symName: __Z22getSecondOrderElementsiSt6vectorIiSaIiEE, symObjAddr: 0x484, symBinAddr: 0x1000032B6, symSize: 0xEA }
  - { offsetInCU: 0x2D94A, offset: 0x2D94A, size: 0x8, addend: 0x0, symName: __Z8sLargestSt6vectorIiSaIiEE, symObjAddr: 0x27E, symBinAddr: 0x1000030B0, symSize: 0x103 }
  - { offsetInCU: 0x2D952, offset: 0x2D952, size: 0x8, addend: 0x0, symName: __Z9sSmallestSt6vectorIiSaIiEE, symObjAddr: 0x381, symBinAddr: 0x1000031B3, symSize: 0x103 }
  - { offsetInCU: 0x2D9FA, offset: 0x2D9FA, size: 0x8, addend: 0x0, symName: __Z23getSecondOrderElements0iRSt6vectorIiSaIiEE, symObjAddr: 0x1C6, symBinAddr: 0x100002FF8, symSize: 0xB8 }
  - { offsetInCU: 0x2DA02, offset: 0x2DA02, size: 0x8, addend: 0x0, symName: __Z8sLargestSt6vectorIiSaIiEE, symObjAddr: 0x27E, symBinAddr: 0x1000030B0, symSize: 0x103 }
  - { offsetInCU: 0x2DA52, offset: 0x2DA52, size: 0x8, addend: 0x0, symName: __ZNSt6vectorIiSaIiEEC1EOS1_, symObjAddr: 0x1A0, symBinAddr: 0x100002FD2, symSize: 0x26 }
  - { offsetInCU: 0x2DA5A, offset: 0x2DA5A, size: 0x8, addend: 0x0, symName: __Z23getSecondOrderElements0iRSt6vectorIiSaIiEE, symObjAddr: 0x1C6, symBinAddr: 0x100002FF8, symSize: 0xB8 }
  - { offsetInCU: 0x2DAB8, offset: 0x2DAB8, size: 0x8, addend: 0x0, symName: __ZNSt12_Vector_baseIiSaIiEEC2EOS1_, symObjAddr: 0x17A, symBinAddr: 0x100002FAC, symSize: 0x26 }
  - { offsetInCU: 0x2DAC0, offset: 0x2DAC0, size: 0x8, addend: 0x0, symName: __ZNSt6vectorIiSaIiEEC1EOS1_, symObjAddr: 0x1A0, symBinAddr: 0x100002FD2, symSize: 0x26 }
  - { offsetInCU: 0x2DB04, offset: 0x2DB04, size: 0x8, addend: 0x0, symName: __ZNSt6vectorIiSaIiEEC1Ev, symObjAddr: 0x15E, symBinAddr: 0x100002F90, symSize: 0x1C }
  - { offsetInCU: 0x2DB54, offset: 0x2DB54, size: 0x8, addend: 0x0, symName: __ZNSt12_Vector_baseIiSaIiEEC2Ev, symObjAddr: 0x142, symBinAddr: 0x100002F74, symSize: 0x1C }
  - { offsetInCU: 0x2DBBD, offset: 0x2DBBD, size: 0x8, addend: 0x0, symName: __ZNSt12_Vector_baseIiSaIiEE12_Vector_implD1Ev, symObjAddr: 0x11E, symBinAddr: 0x100002F50, symSize: 0x24 }
  - { offsetInCU: 0x2DBC5, offset: 0x2DBC5, size: 0x8, addend: 0x0, symName: __ZNSt12_Vector_baseIiSaIiEEC2Ev, symObjAddr: 0x142, symBinAddr: 0x100002F74, symSize: 0x1C }
  - { offsetInCU: 0x2DC18, offset: 0x2DC18, size: 0x8, addend: 0x0, symName: __ZSt3minImERKT_S2_S2_, symObjAddr: 0xF3, symBinAddr: 0x100002F25, symSize: 0x2B }
  - { offsetInCU: 0x2DC20, offset: 0x2DC20, size: 0x8, addend: 0x0, symName: __ZNSt12_Vector_baseIiSaIiEE12_Vector_implD1Ev, symObjAddr: 0x11E, symBinAddr: 0x100002F50, symSize: 0x24 }
  - { offsetInCU: 0x2DC45, offset: 0x2DC45, size: 0x8, addend: 0x0, symName: __ZNSt8__detail20_Prime_rehash_policy8_M_resetEm, symObjAddr: 0xD8, symBinAddr: 0x100002F0A, symSize: 0x1B }
  - { offsetInCU: 0x2DC4D, offset: 0x2DC4D, size: 0x8, addend: 0x0, symName: __ZSt3minImERKT_S2_S2_, symObjAddr: 0xF3, symBinAddr: 0x100002F25, symSize: 0x2B }
  - { offsetInCU: 0x2DC88, offset: 0x2DC88, size: 0x8, addend: 0x0, symName: __ZNKSt8__detail20_Prime_rehash_policy8_M_stateEv, symObjAddr: 0xC6, symBinAddr: 0x100002EF8, symSize: 0x12 }
  - { offsetInCU: 0x2DC90, offset: 0x2DC90, size: 0x8, addend: 0x0, symName: __ZNSt8__detail20_Prime_rehash_policy8_M_resetEm, symObjAddr: 0xD8, symBinAddr: 0x100002F0A, symSize: 0x1B }
  - { offsetInCU: 0x2DD0B, offset: 0x2DD0B, size: 0x8, addend: 0x0, symName: __ZNSt8__detail20_Prime_rehash_policyC1Ef, symObjAddr: 0x9C, symBinAddr: 0x100002ECE, symSize: 0x2A }
  - { offsetInCU: 0x2DD1F, offset: 0x2DD1F, size: 0x8, addend: 0x0, symName: __ZNKSt8__detail18_Mod_range_hashingclEmm, symObjAddr: 0x7A, symBinAddr: 0x100002EAC, symSize: 0x22 }
  - { offsetInCU: 0x2DD27, offset: 0x2DD27, size: 0x8, addend: 0x0, symName: __ZNSt8__detail20_Prime_rehash_policyC1Ef, symObjAddr: 0x9C, symBinAddr: 0x100002ECE, symSize: 0x2A }
  - { offsetInCU: 0x2DDB3, offset: 0x2DDB3, size: 0x8, addend: 0x0, symName: __ZNSt8__detail15_Hash_node_baseC1Ev, symObjAddr: 0x64, symBinAddr: 0x100002E96, symSize: 0x16 }
  - { offsetInCU: 0x2DDBB, offset: 0x2DDBB, size: 0x8, addend: 0x0, symName: __ZNKSt8__detail18_Mod_range_hashingclEmm, symObjAddr: 0x7A, symBinAddr: 0x100002EAC, symSize: 0x22 }
  - { offsetInCU: 0x2DDE3, offset: 0x2DDE3, size: 0x8, addend: 0x0, symName: __ZNSt8__detail15_Hash_node_baseC2Ev, symObjAddr: 0x4E, symBinAddr: 0x100002E80, symSize: 0x16 }
  - { offsetInCU: 0x2DDEB, offset: 0x2DDEB, size: 0x8, addend: 0x0, symName: __ZNSt8__detail15_Hash_node_baseC1Ev, symObjAddr: 0x64, symBinAddr: 0x100002E96, symSize: 0x16 }
  - { offsetInCU: 0x2DDEF, offset: 0x2DDEF, size: 0x8, addend: 0x0, symName: __ZNKSt4hashIiEclEi, symObjAddr: 0x3C, symBinAddr: 0x100002E6E, symSize: 0x12 }
  - { offsetInCU: 0x2DDF7, offset: 0x2DDF7, size: 0x8, addend: 0x0, symName: __ZNSt8__detail15_Hash_node_baseC2Ev, symObjAddr: 0x4E, symBinAddr: 0x100002E80, symSize: 0x16 }
  - { offsetInCU: 0x2DE3F, offset: 0x2DE3F, size: 0x8, addend: 0x0, symName: __ZdlPvS_, symObjAddr: 0x2C, symBinAddr: 0x100002E5E, symSize: 0x10 }
  - { offsetInCU: 0x2DE7D, offset: 0x2DE7D, size: 0x8, addend: 0x0, symName: __ZnwmPv, symObjAddr: 0x1A, symBinAddr: 0x100002E4C, symSize: 0x12 }
  - { offsetInCU: 0x2DE85, offset: 0x2DE85, size: 0x8, addend: 0x0, symName: __ZdlPvS_, symObjAddr: 0x2C, symBinAddr: 0x100002E5E, symSize: 0x10 }
  - { offsetInCU: 0x2DF06, offset: 0x2DF06, size: 0x8, addend: 0x0, symName: __ZN9__gnu_cxx5__ops15__val_comp_iterENS0_15_Iter_less_iterE, symObjAddr: 0x13, symBinAddr: 0x100002E45, symSize: 0x7 }
  - { offsetInCU: 0x2DF0E, offset: 0x2DF0E, size: 0x8, addend: 0x0, symName: __ZnwmPv, symObjAddr: 0x1A, symBinAddr: 0x100002E4C, symSize: 0x12 }
  - { offsetInCU: 0x2DF4C, offset: 0x2DF4C, size: 0x8, addend: 0x0, symName: __ZN9__gnu_cxx5__ops14_Iter_less_valC1ENS0_15_Iter_less_iterE, symObjAddr: 0x8, symBinAddr: 0x100002E3A, symSize: 0xB }
  - { offsetInCU: 0x2DF54, offset: 0x2DF54, size: 0x8, addend: 0x0, symName: __ZN9__gnu_cxx5__ops15__val_comp_iterENS0_15_Iter_less_iterE, symObjAddr: 0x13, symBinAddr: 0x100002E45, symSize: 0x7 }
  - { offsetInCU: 0x2DF8A, offset: 0x2DF8A, size: 0x8, addend: 0x0, symName: __ZN9__gnu_cxx5__ops16__iter_less_iterEv, symObjAddr: 0x0, symBinAddr: 0x100002E32, symSize: 0x8 }
...
